
bomb:     file format elf32-i386


Disassembly of section .init:

0804867c <_init>:
 804867c:	53                   	push   %ebx
 804867d:	83 ec 08             	sub    $0x8,%esp
 8048680:	e8 0b 02 00 00       	call   8048890 <__x86.get_pc_thunk.bx>
 8048685:	81 c3 73 2a 00 00    	add    $0x2a73,%ebx
 804868b:	8b 83 fc ff ff ff    	mov    -0x4(%ebx),%eax
 8048691:	85 c0                	test   %eax,%eax
 8048693:	74 05                	je     804869a <_init+0x1e>
 8048695:	e8 d6 00 00 00       	call   8048770 <__gmon_start__@plt>
 804869a:	83 c4 08             	add    $0x8,%esp
 804869d:	5b                   	pop    %ebx
 804869e:	c3                   	ret    

Disassembly of section .plt:

080486a0 <read@plt-0x10>:
 80486a0:	ff 35 fc b0 04 08    	pushl  0x804b0fc
 80486a6:	ff 25 00 b1 04 08    	jmp    *0x804b100
 80486ac:	00 00                	add    %al,(%eax)
	...

080486b0 <read@plt>:
 80486b0:	ff 25 04 b1 04 08    	jmp    *0x804b104
 80486b6:	68 00 00 00 00       	push   $0x0
 80486bb:	e9 e0 ff ff ff       	jmp    80486a0 <_init+0x24>

080486c0 <printf@plt>:
 80486c0:	ff 25 08 b1 04 08    	jmp    *0x804b108
 80486c6:	68 08 00 00 00       	push   $0x8
 80486cb:	e9 d0 ff ff ff       	jmp    80486a0 <_init+0x24>

080486d0 <fflush@plt>:
 80486d0:	ff 25 0c b1 04 08    	jmp    *0x804b10c
 80486d6:	68 10 00 00 00       	push   $0x10
 80486db:	e9 c0 ff ff ff       	jmp    80486a0 <_init+0x24>

080486e0 <memcpy@plt>:
 80486e0:	ff 25 10 b1 04 08    	jmp    *0x804b110
 80486e6:	68 18 00 00 00       	push   $0x18
 80486eb:	e9 b0 ff ff ff       	jmp    80486a0 <_init+0x24>

080486f0 <fgets@plt>:
 80486f0:	ff 25 14 b1 04 08    	jmp    *0x804b114
 80486f6:	68 20 00 00 00       	push   $0x20
 80486fb:	e9 a0 ff ff ff       	jmp    80486a0 <_init+0x24>

08048700 <signal@plt>:
 8048700:	ff 25 18 b1 04 08    	jmp    *0x804b118
 8048706:	68 28 00 00 00       	push   $0x28
 804870b:	e9 90 ff ff ff       	jmp    80486a0 <_init+0x24>

08048710 <sleep@plt>:
 8048710:	ff 25 1c b1 04 08    	jmp    *0x804b11c
 8048716:	68 30 00 00 00       	push   $0x30
 804871b:	e9 80 ff ff ff       	jmp    80486a0 <_init+0x24>

08048720 <alarm@plt>:
 8048720:	ff 25 20 b1 04 08    	jmp    *0x804b120
 8048726:	68 38 00 00 00       	push   $0x38
 804872b:	e9 70 ff ff ff       	jmp    80486a0 <_init+0x24>

08048730 <bcopy@plt>:
 8048730:	ff 25 24 b1 04 08    	jmp    *0x804b124
 8048736:	68 40 00 00 00       	push   $0x40
 804873b:	e9 60 ff ff ff       	jmp    80486a0 <_init+0x24>

08048740 <strcpy@plt>:
 8048740:	ff 25 28 b1 04 08    	jmp    *0x804b128
 8048746:	68 48 00 00 00       	push   $0x48
 804874b:	e9 50 ff ff ff       	jmp    80486a0 <_init+0x24>

08048750 <getenv@plt>:
 8048750:	ff 25 2c b1 04 08    	jmp    *0x804b12c
 8048756:	68 50 00 00 00       	push   $0x50
 804875b:	e9 40 ff ff ff       	jmp    80486a0 <_init+0x24>

08048760 <puts@plt>:
 8048760:	ff 25 30 b1 04 08    	jmp    *0x804b130
 8048766:	68 58 00 00 00       	push   $0x58
 804876b:	e9 30 ff ff ff       	jmp    80486a0 <_init+0x24>

08048770 <__gmon_start__@plt>:
 8048770:	ff 25 34 b1 04 08    	jmp    *0x804b134
 8048776:	68 60 00 00 00       	push   $0x60
 804877b:	e9 20 ff ff ff       	jmp    80486a0 <_init+0x24>

08048780 <exit@plt>:
 8048780:	ff 25 38 b1 04 08    	jmp    *0x804b138
 8048786:	68 68 00 00 00       	push   $0x68
 804878b:	e9 10 ff ff ff       	jmp    80486a0 <_init+0x24>

08048790 <__libc_start_main@plt>:
 8048790:	ff 25 3c b1 04 08    	jmp    *0x804b13c
 8048796:	68 70 00 00 00       	push   $0x70
 804879b:	e9 00 ff ff ff       	jmp    80486a0 <_init+0x24>

080487a0 <fprintf@plt>:
 80487a0:	ff 25 40 b1 04 08    	jmp    *0x804b140
 80487a6:	68 78 00 00 00       	push   $0x78
 80487ab:	e9 f0 fe ff ff       	jmp    80486a0 <_init+0x24>

080487b0 <write@plt>:
 80487b0:	ff 25 44 b1 04 08    	jmp    *0x804b144
 80487b6:	68 80 00 00 00       	push   $0x80
 80487bb:	e9 e0 fe ff ff       	jmp    80486a0 <_init+0x24>

080487c0 <__isoc99_sscanf@plt>:
 80487c0:	ff 25 48 b1 04 08    	jmp    *0x804b148
 80487c6:	68 88 00 00 00       	push   $0x88
 80487cb:	e9 d0 fe ff ff       	jmp    80486a0 <_init+0x24>

080487d0 <fopen@plt>:
 80487d0:	ff 25 4c b1 04 08    	jmp    *0x804b14c
 80487d6:	68 90 00 00 00       	push   $0x90
 80487db:	e9 c0 fe ff ff       	jmp    80486a0 <_init+0x24>

080487e0 <__errno_location@plt>:
 80487e0:	ff 25 50 b1 04 08    	jmp    *0x804b150
 80487e6:	68 98 00 00 00       	push   $0x98
 80487eb:	e9 b0 fe ff ff       	jmp    80486a0 <_init+0x24>

080487f0 <sprintf@plt>:
 80487f0:	ff 25 54 b1 04 08    	jmp    *0x804b154
 80487f6:	68 a0 00 00 00       	push   $0xa0
 80487fb:	e9 a0 fe ff ff       	jmp    80486a0 <_init+0x24>

08048800 <socket@plt>:
 8048800:	ff 25 58 b1 04 08    	jmp    *0x804b158
 8048806:	68 a8 00 00 00       	push   $0xa8
 804880b:	e9 90 fe ff ff       	jmp    80486a0 <_init+0x24>

08048810 <gethostbyname@plt>:
 8048810:	ff 25 5c b1 04 08    	jmp    *0x804b15c
 8048816:	68 b0 00 00 00       	push   $0xb0
 804881b:	e9 80 fe ff ff       	jmp    80486a0 <_init+0x24>

08048820 <strtol@plt>:
 8048820:	ff 25 60 b1 04 08    	jmp    *0x804b160
 8048826:	68 b8 00 00 00       	push   $0xb8
 804882b:	e9 70 fe ff ff       	jmp    80486a0 <_init+0x24>

08048830 <connect@plt>:
 8048830:	ff 25 64 b1 04 08    	jmp    *0x804b164
 8048836:	68 c0 00 00 00       	push   $0xc0
 804883b:	e9 60 fe ff ff       	jmp    80486a0 <_init+0x24>

08048840 <close@plt>:
 8048840:	ff 25 68 b1 04 08    	jmp    *0x804b168
 8048846:	68 c8 00 00 00       	push   $0xc8
 804884b:	e9 50 fe ff ff       	jmp    80486a0 <_init+0x24>

08048850 <__ctype_b_loc@plt>:
 8048850:	ff 25 6c b1 04 08    	jmp    *0x804b16c
 8048856:	68 d0 00 00 00       	push   $0xd0
 804885b:	e9 40 fe ff ff       	jmp    80486a0 <_init+0x24>

Disassembly of section .text:

08048860 <_start>:
 8048860:	31 ed                	xor    %ebp,%ebp
 8048862:	5e                   	pop    %esi
 8048863:	89 e1                	mov    %esp,%ecx
 8048865:	83 e4 f0             	and    $0xfffffff0,%esp
 8048868:	50                   	push   %eax
 8048869:	54                   	push   %esp
 804886a:	52                   	push   %edx
 804886b:	68 60 9d 04 08       	push   $0x8049d60
 8048870:	68 f0 9c 04 08       	push   $0x8049cf0
 8048875:	51                   	push   %ecx
 8048876:	56                   	push   %esi
 8048877:	68 5b 89 04 08       	push   $0x804895b
 804887c:	e8 0f ff ff ff       	call   8048790 <__libc_start_main@plt>
 8048881:	f4                   	hlt    
 8048882:	66 90                	xchg   %ax,%ax
 8048884:	66 90                	xchg   %ax,%ax
 8048886:	66 90                	xchg   %ax,%ax
 8048888:	66 90                	xchg   %ax,%ax
 804888a:	66 90                	xchg   %ax,%ax
 804888c:	66 90                	xchg   %ax,%ax
 804888e:	66 90                	xchg   %ax,%ax

08048890 <__x86.get_pc_thunk.bx>:
 8048890:	8b 1c 24             	mov    (%esp),%ebx
 8048893:	c3                   	ret    
 8048894:	66 90                	xchg   %ax,%ax
 8048896:	66 90                	xchg   %ax,%ax
 8048898:	66 90                	xchg   %ax,%ax
 804889a:	66 90                	xchg   %ax,%ax
 804889c:	66 90                	xchg   %ax,%ax
 804889e:	66 90                	xchg   %ax,%ax

080488a0 <deregister_tm_clones>:
 80488a0:	b8 c3 b4 04 08       	mov    $0x804b4c3,%eax
 80488a5:	2d c0 b4 04 08       	sub    $0x804b4c0,%eax
 80488aa:	83 f8 06             	cmp    $0x6,%eax
 80488ad:	76 1a                	jbe    80488c9 <deregister_tm_clones+0x29>
 80488af:	b8 00 00 00 00       	mov    $0x0,%eax
 80488b4:	85 c0                	test   %eax,%eax
 80488b6:	74 11                	je     80488c9 <deregister_tm_clones+0x29>
 80488b8:	55                   	push   %ebp
 80488b9:	89 e5                	mov    %esp,%ebp
 80488bb:	83 ec 14             	sub    $0x14,%esp
 80488be:	68 c0 b4 04 08       	push   $0x804b4c0
 80488c3:	ff d0                	call   *%eax
 80488c5:	83 c4 10             	add    $0x10,%esp
 80488c8:	c9                   	leave  
 80488c9:	f3 c3                	repz ret 
 80488cb:	90                   	nop
 80488cc:	8d 74 26 00          	lea    0x0(%esi,%eiz,1),%esi

080488d0 <register_tm_clones>:
 80488d0:	b8 c0 b4 04 08       	mov    $0x804b4c0,%eax
 80488d5:	2d c0 b4 04 08       	sub    $0x804b4c0,%eax
 80488da:	c1 f8 02             	sar    $0x2,%eax
 80488dd:	89 c2                	mov    %eax,%edx
 80488df:	c1 ea 1f             	shr    $0x1f,%edx
 80488e2:	01 d0                	add    %edx,%eax
 80488e4:	d1 f8                	sar    %eax
 80488e6:	74 1b                	je     8048903 <register_tm_clones+0x33>
 80488e8:	ba 00 00 00 00       	mov    $0x0,%edx
 80488ed:	85 d2                	test   %edx,%edx
 80488ef:	74 12                	je     8048903 <register_tm_clones+0x33>
 80488f1:	55                   	push   %ebp
 80488f2:	89 e5                	mov    %esp,%ebp
 80488f4:	83 ec 10             	sub    $0x10,%esp
 80488f7:	50                   	push   %eax
 80488f8:	68 c0 b4 04 08       	push   $0x804b4c0
 80488fd:	ff d2                	call   *%edx
 80488ff:	83 c4 10             	add    $0x10,%esp
 8048902:	c9                   	leave  
 8048903:	f3 c3                	repz ret 
 8048905:	8d 74 26 00          	lea    0x0(%esi,%eiz,1),%esi
 8048909:	8d bc 27 00 00 00 00 	lea    0x0(%edi,%eiz,1),%edi

08048910 <__do_global_dtors_aux>:
 8048910:	80 3d e4 b4 04 08 00 	cmpb   $0x0,0x804b4e4
 8048917:	75 13                	jne    804892c <__do_global_dtors_aux+0x1c>
 8048919:	55                   	push   %ebp
 804891a:	89 e5                	mov    %esp,%ebp
 804891c:	83 ec 08             	sub    $0x8,%esp
 804891f:	e8 7c ff ff ff       	call   80488a0 <deregister_tm_clones>
 8048924:	c6 05 e4 b4 04 08 01 	movb   $0x1,0x804b4e4
 804892b:	c9                   	leave  
 804892c:	f3 c3                	repz ret 
 804892e:	66 90                	xchg   %ax,%ax

08048930 <frame_dummy>:
 8048930:	b8 08 b0 04 08       	mov    $0x804b008,%eax
 8048935:	8b 10                	mov    (%eax),%edx
 8048937:	85 d2                	test   %edx,%edx
 8048939:	75 05                	jne    8048940 <frame_dummy+0x10>
 804893b:	eb 93                	jmp    80488d0 <register_tm_clones>
 804893d:	8d 76 00             	lea    0x0(%esi),%esi
 8048940:	ba 00 00 00 00       	mov    $0x0,%edx
 8048945:	85 d2                	test   %edx,%edx
 8048947:	74 f2                	je     804893b <frame_dummy+0xb>
 8048949:	55                   	push   %ebp
 804894a:	89 e5                	mov    %esp,%ebp
 804894c:	83 ec 14             	sub    $0x14,%esp
 804894f:	50                   	push   %eax
 8048950:	ff d2                	call   *%edx
 8048952:	83 c4 10             	add    $0x10,%esp
 8048955:	c9                   	leave  
 8048956:	e9 75 ff ff ff       	jmp    80488d0 <register_tm_clones>

0804895b <main>:
 804895b:	8d 4c 24 04          	lea    0x4(%esp),%ecx
 804895f:	83 e4 f0             	and    $0xfffffff0,%esp
 8048962:	ff 71 fc             	pushl  -0x4(%ecx)
 8048965:	55                   	push   %ebp
 8048966:	89 e5                	mov    %esp,%ebp
 8048968:	53                   	push   %ebx
 8048969:	51                   	push   %ecx
 804896a:	8b 01                	mov    (%ecx),%eax
 804896c:	8b 59 04             	mov    0x4(%ecx),%ebx
 804896f:	83 f8 01             	cmp    $0x1,%eax
 8048972:	75 0c                	jne    8048980 <main+0x25>
 8048974:	a1 c4 b4 04 08       	mov    0x804b4c4,%eax
 8048979:	a3 ec b4 04 08       	mov    %eax,0x804b4ec
 804897e:	eb 5a                	jmp    80489da <main+0x7f>
 8048980:	83 f8 02             	cmp    $0x2,%eax
 8048983:	75 3a                	jne    80489bf <main+0x64>
 8048985:	83 ec 08             	sub    $0x8,%esp
 8048988:	68 80 9d 04 08       	push   $0x8049d80
 804898d:	ff 73 04             	pushl  0x4(%ebx)
 8048990:	e8 3b fe ff ff       	call   80487d0 <fopen@plt>
 8048995:	a3 ec b4 04 08       	mov    %eax,0x804b4ec
 804899a:	83 c4 10             	add    $0x10,%esp
 804899d:	85 c0                	test   %eax,%eax
 804899f:	75 39                	jne    80489da <main+0x7f>
 80489a1:	83 ec 04             	sub    $0x4,%esp
 80489a4:	ff 73 04             	pushl  0x4(%ebx)
 80489a7:	ff 33                	pushl  (%ebx)
 80489a9:	68 82 9d 04 08       	push   $0x8049d82
 80489ae:	e8 0d fd ff ff       	call   80486c0 <printf@plt>
 80489b3:	c7 04 24 08 00 00 00 	movl   $0x8,(%esp)
 80489ba:	e8 c1 fd ff ff       	call   8048780 <exit@plt>
 80489bf:	83 ec 08             	sub    $0x8,%esp
 80489c2:	ff 33                	pushl  (%ebx)
 80489c4:	68 9f 9d 04 08       	push   $0x8049d9f
 80489c9:	e8 f2 fc ff ff       	call   80486c0 <printf@plt>
 80489ce:	c7 04 24 08 00 00 00 	movl   $0x8,(%esp)
 80489d5:	e8 a6 fd ff ff       	call   8048780 <exit@plt>
 80489da:	e8 64 05 00 00       	call   8048f43 <initialize_bomb>
 80489df:	83 ec 0c             	sub    $0xc,%esp
 80489e2:	68 04 9e 04 08       	push   $0x8049e04
 80489e7:	e8 74 fd ff ff       	call   8048760 <puts@plt>
 80489ec:	c7 04 24 40 9e 04 08 	movl   $0x8049e40,(%esp)
 80489f3:	e8 68 fd ff ff       	call   8048760 <puts@plt>
 80489f8:	e8 38 06 00 00       	call   8049035 <read_line>
 80489fd:	89 04 24             	mov    %eax,(%esp)
 8048a00:	e8 ad 00 00 00       	call   8048ab2 <phase_1>
 8048a05:	e8 24 07 00 00       	call   804912e <phase_defused>
 8048a0a:	c7 04 24 6c 9e 04 08 	movl   $0x8049e6c,(%esp)
 8048a11:	e8 4a fd ff ff       	call   8048760 <puts@plt>
 8048a16:	e8 1a 06 00 00       	call   8049035 <read_line>
 8048a1b:	89 04 24             	mov    %eax,(%esp)
 8048a1e:	e8 b0 00 00 00       	call   8048ad3 <phase_2>
 8048a23:	e8 06 07 00 00       	call   804912e <phase_defused>
 8048a28:	c7 04 24 b9 9d 04 08 	movl   $0x8049db9,(%esp)
 8048a2f:	e8 2c fd ff ff       	call   8048760 <puts@plt>
 8048a34:	e8 fc 05 00 00       	call   8049035 <read_line>
 8048a39:	89 04 24             	mov    %eax,(%esp)
 8048a3c:	e8 e5 00 00 00       	call   8048b26 <phase_3>
 8048a41:	e8 e8 06 00 00       	call   804912e <phase_defused>
 8048a46:	c7 04 24 d7 9d 04 08 	movl   $0x8049dd7,(%esp)
 8048a4d:	e8 0e fd ff ff       	call   8048760 <puts@plt>
 8048a52:	e8 de 05 00 00       	call   8049035 <read_line>
 8048a57:	89 04 24             	mov    %eax,(%esp)
 8048a5a:	e8 bf 01 00 00       	call   8048c1e <phase_4>
 8048a5f:	e8 ca 06 00 00       	call   804912e <phase_defused>
 8048a64:	c7 04 24 98 9e 04 08 	movl   $0x8049e98,(%esp)
 8048a6b:	e8 f0 fc ff ff       	call   8048760 <puts@plt>
 8048a70:	e8 c0 05 00 00       	call   8049035 <read_line>
 8048a75:	89 04 24             	mov    %eax,(%esp)
 8048a78:	e8 f5 01 00 00       	call   8048c72 <phase_5>
 8048a7d:	e8 ac 06 00 00       	call   804912e <phase_defused>
 8048a82:	c7 04 24 e6 9d 04 08 	movl   $0x8049de6,(%esp)
 8048a89:	e8 d2 fc ff ff       	call   8048760 <puts@plt>
 8048a8e:	e8 a2 05 00 00       	call   8049035 <read_line>
 8048a93:	89 04 24             	mov    %eax,(%esp)
 8048a96:	e8 3f 02 00 00       	call   8048cda <phase_6>
 8048a9b:	e8 8e 06 00 00       	call   804912e <phase_defused>
 8048aa0:	83 c4 10             	add    $0x10,%esp
 8048aa3:	b8 00 00 00 00       	mov    $0x0,%eax
 8048aa8:	8d 65 f8             	lea    -0x8(%ebp),%esp
 8048aab:	59                   	pop    %ecx
 8048aac:	5b                   	pop    %ebx
 8048aad:	5d                   	pop    %ebp
 8048aae:	8d 61 fc             	lea    -0x4(%ecx),%esp
 8048ab1:	c3                   	ret    

08048ab2 <phase_1>:
 8048ab2:	83 ec 14             	sub    $0x14,%esp
 8048ab5:	68 bc 9e 04 08       	push   $0x8049ebc
 8048aba:	ff 74 24 1c          	pushl  0x1c(%esp)
 8048abe:	e8 1b 04 00 00       	call   8048ede <strings_not_equal>
 8048ac3:	83 c4 10             	add    $0x10,%esp
 8048ac6:	85 c0                	test   %eax,%eax
 8048ac8:	74 05                	je     8048acf <phase_1+0x1d>
 8048aca:	e8 06 05 00 00       	call   8048fd5 <explode_bomb>
 8048acf:	83 c4 0c             	add    $0xc,%esp
 8048ad2:	c3                   	ret    

08048ad3 <phase_2>:
 8048ad3:	56                   	push   %esi
 8048ad4:	53                   	push   %ebx
 8048ad5:	83 ec 2c             	sub    $0x2c,%esp
 8048ad8:	8d 44 24 10          	lea    0x10(%esp),%eax
 8048adc:	50                   	push   %eax
 8048add:	ff 74 24 3c          	pushl  0x3c(%esp)
 8048ae1:	e8 14 05 00 00       	call   8048ffa <read_six_numbers>
 8048ae6:	83 c4 10             	add    $0x10,%esp
 8048ae9:	83 7c 24 08 00       	cmpl   $0x0,0x8(%esp)
 8048aee:	75 07                	jne    8048af7 <phase_2+0x24>
 8048af0:	83 7c 24 0c 01       	cmpl   $0x1,0xc(%esp)
 8048af5:	74 1f                	je     8048b16 <phase_2+0x43>
 8048af7:	e8 d9 04 00 00       	call   8048fd5 <explode_bomb>
 8048afc:	eb 18                	jmp    8048b16 <phase_2+0x43>
 8048afe:	8b 43 04             	mov    0x4(%ebx),%eax
 8048b01:	03 03                	add    (%ebx),%eax
 8048b03:	39 43 08             	cmp    %eax,0x8(%ebx)
 8048b06:	74 05                	je     8048b0d <phase_2+0x3a>
 8048b08:	e8 c8 04 00 00       	call   8048fd5 <explode_bomb>
 8048b0d:	83 c3 04             	add    $0x4,%ebx
 8048b10:	39 f3                	cmp    %esi,%ebx
 8048b12:	75 ea                	jne    8048afe <phase_2+0x2b>
 8048b14:	eb 0a                	jmp    8048b20 <phase_2+0x4d>
 8048b16:	8d 5c 24 08          	lea    0x8(%esp),%ebx
 8048b1a:	8d 74 24 18          	lea    0x18(%esp),%esi
 8048b1e:	eb de                	jmp    8048afe <phase_2+0x2b>
 8048b20:	83 c4 24             	add    $0x24,%esp
 8048b23:	5b                   	pop    %ebx
 8048b24:	5e                   	pop    %esi
 8048b25:	c3                   	ret    

08048b26 <phase_3>:
 8048b26:	83 ec 1c             	sub    $0x1c,%esp
 8048b29:	8d 44 24 08          	lea    0x8(%esp),%eax
 8048b2d:	50                   	push   %eax
 8048b2e:	8d 44 24 10          	lea    0x10(%esp),%eax
 8048b32:	50                   	push   %eax
 8048b33:	68 63 a0 04 08       	push   $0x804a063
 8048b38:	ff 74 24 2c          	pushl  0x2c(%esp)
 8048b3c:	e8 7f fc ff ff       	call   80487c0 <__isoc99_sscanf@plt>
 8048b41:	83 c4 10             	add    $0x10,%esp
 8048b44:	83 f8 01             	cmp    $0x1,%eax
 8048b47:	7f 05                	jg     8048b4e <phase_3+0x28>
 8048b49:	e8 87 04 00 00       	call   8048fd5 <explode_bomb>
 8048b4e:	83 7c 24 0c 07       	cmpl   $0x7,0xc(%esp)
 8048b53:	77 66                	ja     8048bbb <phase_3+0x95>
 8048b55:	8b 44 24 0c          	mov    0xc(%esp),%eax
 8048b59:	ff 24 85 24 9f 04 08 	jmp    *0x8049f24(,%eax,4)
 8048b60:	b8 e0 03 00 00       	mov    $0x3e0,%eax
 8048b65:	eb 05                	jmp    8048b6c <phase_3+0x46>
 8048b67:	b8 00 00 00 00       	mov    $0x0,%eax
 8048b6c:	2d 96 03 00 00       	sub    $0x396,%eax
 8048b71:	eb 05                	jmp    8048b78 <phase_3+0x52>
 8048b73:	b8 00 00 00 00       	mov    $0x0,%eax
 8048b78:	05 6f 01 00 00       	add    $0x16f,%eax
 8048b7d:	eb 05                	jmp    8048b84 <phase_3+0x5e>
 8048b7f:	b8 00 00 00 00       	mov    $0x0,%eax
 8048b84:	2d 9c 00 00 00       	sub    $0x9c,%eax
 8048b89:	eb 05                	jmp    8048b90 <phase_3+0x6a>
 8048b8b:	b8 00 00 00 00       	mov    $0x0,%eax
 8048b90:	05 9c 00 00 00       	add    $0x9c,%eax
 8048b95:	eb 05                	jmp    8048b9c <phase_3+0x76>
 8048b97:	b8 00 00 00 00       	mov    $0x0,%eax
 8048b9c:	2d 9c 00 00 00       	sub    $0x9c,%eax
 8048ba1:	eb 05                	jmp    8048ba8 <phase_3+0x82>
 8048ba3:	b8 00 00 00 00       	mov    $0x0,%eax
 8048ba8:	05 9c 00 00 00       	add    $0x9c,%eax
 8048bad:	eb 05                	jmp    8048bb4 <phase_3+0x8e>
 8048baf:	b8 00 00 00 00       	mov    $0x0,%eax
 8048bb4:	2d 9c 00 00 00       	sub    $0x9c,%eax
 8048bb9:	eb 0a                	jmp    8048bc5 <phase_3+0x9f>
 8048bbb:	e8 15 04 00 00       	call   8048fd5 <explode_bomb>
 8048bc0:	b8 00 00 00 00       	mov    $0x0,%eax
 8048bc5:	83 7c 24 0c 05       	cmpl   $0x5,0xc(%esp)
 8048bca:	7f 06                	jg     8048bd2 <phase_3+0xac>
 8048bcc:	3b 44 24 08          	cmp    0x8(%esp),%eax
 8048bd0:	74 05                	je     8048bd7 <phase_3+0xb1>
 8048bd2:	e8 fe 03 00 00       	call   8048fd5 <explode_bomb>
 8048bd7:	83 c4 1c             	add    $0x1c,%esp
 8048bda:	c3                   	ret    

08048bdb <func4>:
 8048bdb:	57                   	push   %edi
 8048bdc:	56                   	push   %esi
 8048bdd:	53                   	push   %ebx
 8048bde:	8b 5c 24 10          	mov    0x10(%esp),%ebx
 8048be2:	8b 7c 24 14          	mov    0x14(%esp),%edi
 8048be6:	85 db                	test   %ebx,%ebx
 8048be8:	7e 2b                	jle    8048c15 <func4+0x3a>
 8048bea:	89 f8                	mov    %edi,%eax
 8048bec:	83 fb 01             	cmp    $0x1,%ebx
 8048bef:	74 29                	je     8048c1a <func4+0x3f>
 8048bf1:	83 ec 08             	sub    $0x8,%esp
 8048bf4:	57                   	push   %edi
 8048bf5:	8d 43 ff             	lea    -0x1(%ebx),%eax
 8048bf8:	50                   	push   %eax
 8048bf9:	e8 dd ff ff ff       	call   8048bdb <func4>
 8048bfe:	83 c4 08             	add    $0x8,%esp
 8048c01:	8d 34 38             	lea    (%eax,%edi,1),%esi
 8048c04:	57                   	push   %edi
 8048c05:	83 eb 02             	sub    $0x2,%ebx
 8048c08:	53                   	push   %ebx
 8048c09:	e8 cd ff ff ff       	call   8048bdb <func4>
 8048c0e:	83 c4 10             	add    $0x10,%esp
 8048c11:	01 f0                	add    %esi,%eax
 8048c13:	eb 05                	jmp    8048c1a <func4+0x3f>
 8048c15:	b8 00 00 00 00       	mov    $0x0,%eax
 8048c1a:	5b                   	pop    %ebx
 8048c1b:	5e                   	pop    %esi
 8048c1c:	5f                   	pop    %edi
 8048c1d:	c3                   	ret    

08048c1e <phase_4>:
 8048c1e:	83 ec 1c             	sub    $0x1c,%esp
 8048c21:	8d 44 24 0c          	lea    0xc(%esp),%eax
 8048c25:	50                   	push   %eax
 8048c26:	8d 44 24 0c          	lea    0xc(%esp),%eax
 8048c2a:	50                   	push   %eax
 8048c2b:	68 63 a0 04 08       	push   $0x804a063
 8048c30:	ff 74 24 2c          	pushl  0x2c(%esp)
 8048c34:	e8 87 fb ff ff       	call   80487c0 <__isoc99_sscanf@plt>
 8048c39:	83 c4 10             	add    $0x10,%esp
 8048c3c:	83 f8 02             	cmp    $0x2,%eax
 8048c3f:	75 0c                	jne    8048c4d <phase_4+0x2f>
 8048c41:	8b 44 24 0c          	mov    0xc(%esp),%eax
 8048c45:	83 e8 02             	sub    $0x2,%eax
 8048c48:	83 f8 02             	cmp    $0x2,%eax
 8048c4b:	76 05                	jbe    8048c52 <phase_4+0x34>
 8048c4d:	e8 83 03 00 00       	call   8048fd5 <explode_bomb>
 8048c52:	83 ec 08             	sub    $0x8,%esp
 8048c55:	ff 74 24 14          	pushl  0x14(%esp)
 8048c59:	6a 06                	push   $0x6
 8048c5b:	e8 7b ff ff ff       	call   8048bdb <func4>
 8048c60:	83 c4 10             	add    $0x10,%esp
 8048c63:	3b 44 24 08          	cmp    0x8(%esp),%eax
 8048c67:	74 05                	je     8048c6e <phase_4+0x50>
 8048c69:	e8 67 03 00 00       	call   8048fd5 <explode_bomb>
 8048c6e:	83 c4 1c             	add    $0x1c,%esp
 8048c71:	c3                   	ret    

08048c72 <phase_5>:
 8048c72:	53                   	push   %ebx
 8048c73:	83 ec 24             	sub    $0x24,%esp
 8048c76:	8b 5c 24 2c          	mov    0x2c(%esp),%ebx
 8048c7a:	53                   	push   %ebx
 8048c7b:	e8 3f 02 00 00       	call   8048ebf <string_length>
 8048c80:	83 c4 10             	add    $0x10,%esp
 8048c83:	83 f8 06             	cmp    $0x6,%eax
 8048c86:	74 46                	je     8048cce <phase_5+0x5c>
 8048c88:	e8 48 03 00 00       	call   8048fd5 <explode_bomb>
 8048c8d:	eb 3f                	jmp    8048cce <phase_5+0x5c>
 8048c8f:	0f b6 14 03          	movzbl (%ebx,%eax,1),%edx
 8048c93:	83 e2 0f             	and    $0xf,%edx
 8048c96:	0f b6 92 44 9f 04 08 	movzbl 0x8049f44(%edx),%edx
 8048c9d:	88 54 04 09          	mov    %dl,0x9(%esp,%eax,1)
 8048ca1:	83 c0 01             	add    $0x1,%eax
 8048ca4:	83 f8 06             	cmp    $0x6,%eax
 8048ca7:	75 e6                	jne    8048c8f <phase_5+0x1d>
 8048ca9:	c6 44 24 0f 00       	movb   $0x0,0xf(%esp)
 8048cae:	83 ec 08             	sub    $0x8,%esp
 8048cb1:	68 1a 9f 04 08       	push   $0x8049f1a
 8048cb6:	8d 44 24 15          	lea    0x15(%esp),%eax
 8048cba:	50                   	push   %eax
 8048cbb:	e8 1e 02 00 00       	call   8048ede <strings_not_equal>
 8048cc0:	83 c4 10             	add    $0x10,%esp
 8048cc3:	85 c0                	test   %eax,%eax
 8048cc5:	74 0e                	je     8048cd5 <phase_5+0x63>
 8048cc7:	e8 09 03 00 00       	call   8048fd5 <explode_bomb>
 8048ccc:	eb 07                	jmp    8048cd5 <phase_5+0x63>
 8048cce:	b8 00 00 00 00       	mov    $0x0,%eax
 8048cd3:	eb ba                	jmp    8048c8f <phase_5+0x1d>
 8048cd5:	83 c4 18             	add    $0x18,%esp
 8048cd8:	5b                   	pop    %ebx
 8048cd9:	c3                   	ret    

08048cda <phase_6>:
 8048cda:	56                   	push   %esi
 8048cdb:	53                   	push   %ebx
 8048cdc:	83 ec 3c             	sub    $0x3c,%esp
 8048cdf:	8d 44 24 20          	lea    0x20(%esp),%eax
 8048ce3:	50                   	push   %eax
 8048ce4:	ff 74 24 4c          	pushl  0x4c(%esp)
 8048ce8:	e8 0d 03 00 00       	call   8048ffa <read_six_numbers>
 8048ced:	83 c4 10             	add    $0x10,%esp
 8048cf0:	be 00 00 00 00       	mov    $0x0,%esi
 8048cf5:	8b 44 b4 18          	mov    0x18(%esp,%esi,4),%eax
 8048cf9:	83 e8 01             	sub    $0x1,%eax
 8048cfc:	83 f8 05             	cmp    $0x5,%eax
 8048cff:	76 05                	jbe    8048d06 <phase_6+0x2c>
 8048d01:	e8 cf 02 00 00       	call   8048fd5 <explode_bomb>
 8048d06:	83 c6 01             	add    $0x1,%esi
 8048d09:	83 fe 06             	cmp    $0x6,%esi
 8048d0c:	74 32                	je     8048d40 <phase_6+0x66>
 8048d0e:	89 f3                	mov    %esi,%ebx
 8048d10:	8b 44 9c 18          	mov    0x18(%esp,%ebx,4),%eax
 8048d14:	39 44 b4 14          	cmp    %eax,0x14(%esp,%esi,4)
 8048d18:	75 05                	jne    8048d1f <phase_6+0x45>
 8048d1a:	e8 b6 02 00 00       	call   8048fd5 <explode_bomb>
 8048d1f:	83 c3 01             	add    $0x1,%ebx
 8048d22:	83 fb 05             	cmp    $0x5,%ebx
 8048d25:	7e e9                	jle    8048d10 <phase_6+0x36>
 8048d27:	eb cc                	jmp    8048cf5 <phase_6+0x1b>
 8048d29:	8b 52 08             	mov    0x8(%edx),%edx
 8048d2c:	83 c0 01             	add    $0x1,%eax
 8048d2f:	39 c8                	cmp    %ecx,%eax
 8048d31:	75 f6                	jne    8048d29 <phase_6+0x4f>
 8048d33:	89 14 b4             	mov    %edx,(%esp,%esi,4)
 8048d36:	83 c3 01             	add    $0x1,%ebx
 8048d39:	83 fb 06             	cmp    $0x6,%ebx
 8048d3c:	75 07                	jne    8048d45 <phase_6+0x6b>
 8048d3e:	eb 1c                	jmp    8048d5c <phase_6+0x82>
 8048d40:	bb 00 00 00 00       	mov    $0x0,%ebx
 8048d45:	89 de                	mov    %ebx,%esi
 8048d47:	8b 4c 9c 18          	mov    0x18(%esp,%ebx,4),%ecx
 8048d4b:	b8 01 00 00 00       	mov    $0x1,%eax
 8048d50:	ba 3c b2 04 08       	mov    $0x804b23c,%edx
 8048d55:	83 f9 01             	cmp    $0x1,%ecx
 8048d58:	7f cf                	jg     8048d29 <phase_6+0x4f>
 8048d5a:	eb d7                	jmp    8048d33 <phase_6+0x59>
 8048d5c:	8b 1c 24             	mov    (%esp),%ebx
 8048d5f:	89 e0                	mov    %esp,%eax
 8048d61:	8d 74 24 14          	lea    0x14(%esp),%esi
 8048d65:	89 d9                	mov    %ebx,%ecx
 8048d67:	8b 50 04             	mov    0x4(%eax),%edx
 8048d6a:	89 51 08             	mov    %edx,0x8(%ecx)
 8048d6d:	83 c0 04             	add    $0x4,%eax
 8048d70:	89 d1                	mov    %edx,%ecx
 8048d72:	39 f0                	cmp    %esi,%eax
 8048d74:	75 f1                	jne    8048d67 <phase_6+0x8d>
 8048d76:	c7 42 08 00 00 00 00 	movl   $0x0,0x8(%edx)
 8048d7d:	be 05 00 00 00       	mov    $0x5,%esi
 8048d82:	8b 43 08             	mov    0x8(%ebx),%eax
 8048d85:	8b 00                	mov    (%eax),%eax
 8048d87:	39 03                	cmp    %eax,(%ebx)
 8048d89:	7e 05                	jle    8048d90 <phase_6+0xb6>
 8048d8b:	e8 45 02 00 00       	call   8048fd5 <explode_bomb>
 8048d90:	8b 5b 08             	mov    0x8(%ebx),%ebx
 8048d93:	83 ee 01             	sub    $0x1,%esi
 8048d96:	75 ea                	jne    8048d82 <phase_6+0xa8>
 8048d98:	83 c4 34             	add    $0x34,%esp
 8048d9b:	5b                   	pop    %ebx
 8048d9c:	5e                   	pop    %esi
 8048d9d:	c3                   	ret    

08048d9e <fun7>:
 8048d9e:	53                   	push   %ebx
 8048d9f:	83 ec 08             	sub    $0x8,%esp
 8048da2:	8b 54 24 10          	mov    0x10(%esp),%edx
 8048da6:	8b 4c 24 14          	mov    0x14(%esp),%ecx
 8048daa:	85 d2                	test   %edx,%edx
 8048dac:	74 37                	je     8048de5 <fun7+0x47>
 8048dae:	8b 1a                	mov    (%edx),%ebx
 8048db0:	39 cb                	cmp    %ecx,%ebx
 8048db2:	7e 13                	jle    8048dc7 <fun7+0x29>
 8048db4:	83 ec 08             	sub    $0x8,%esp
 8048db7:	51                   	push   %ecx
 8048db8:	ff 72 04             	pushl  0x4(%edx)
 8048dbb:	e8 de ff ff ff       	call   8048d9e <fun7>
 8048dc0:	83 c4 10             	add    $0x10,%esp
 8048dc3:	01 c0                	add    %eax,%eax
 8048dc5:	eb 23                	jmp    8048dea <fun7+0x4c>
 8048dc7:	b8 00 00 00 00       	mov    $0x0,%eax
 8048dcc:	39 cb                	cmp    %ecx,%ebx
 8048dce:	74 1a                	je     8048dea <fun7+0x4c>
 8048dd0:	83 ec 08             	sub    $0x8,%esp
 8048dd3:	51                   	push   %ecx
 8048dd4:	ff 72 08             	pushl  0x8(%edx)
 8048dd7:	e8 c2 ff ff ff       	call   8048d9e <fun7>
 8048ddc:	83 c4 10             	add    $0x10,%esp
 8048ddf:	8d 44 00 01          	lea    0x1(%eax,%eax,1),%eax
 8048de3:	eb 05                	jmp    8048dea <fun7+0x4c>
 8048de5:	b8 ff ff ff ff       	mov    $0xffffffff,%eax
 8048dea:	83 c4 08             	add    $0x8,%esp
 8048ded:	5b                   	pop    %ebx
 8048dee:	c3                   	ret    

08048def <secret_phase>:
 8048def:	53                   	push   %ebx
 8048df0:	83 ec 08             	sub    $0x8,%esp
 8048df3:	e8 3d 02 00 00       	call   8049035 <read_line>
 8048df8:	83 ec 04             	sub    $0x4,%esp
 8048dfb:	6a 0a                	push   $0xa
 8048dfd:	6a 00                	push   $0x0
 8048dff:	50                   	push   %eax
 8048e00:	e8 1b fa ff ff       	call   8048820 <strtol@plt>
 8048e05:	89 c3                	mov    %eax,%ebx
 8048e07:	8d 40 ff             	lea    -0x1(%eax),%eax
 8048e0a:	83 c4 10             	add    $0x10,%esp
 8048e0d:	3d e8 03 00 00       	cmp    $0x3e8,%eax
 8048e12:	76 05                	jbe    8048e19 <secret_phase+0x2a>
 8048e14:	e8 bc 01 00 00       	call   8048fd5 <explode_bomb>
 8048e19:	83 ec 08             	sub    $0x8,%esp
 8048e1c:	53                   	push   %ebx
 8048e1d:	68 88 b1 04 08       	push   $0x804b188
 8048e22:	e8 77 ff ff ff       	call   8048d9e <fun7>
 8048e27:	83 c4 10             	add    $0x10,%esp
 8048e2a:	83 f8 06             	cmp    $0x6,%eax
 8048e2d:	74 05                	je     8048e34 <secret_phase+0x45>
 8048e2f:	e8 a1 01 00 00       	call   8048fd5 <explode_bomb>
 8048e34:	83 ec 0c             	sub    $0xc,%esp
 8048e37:	68 f4 9e 04 08       	push   $0x8049ef4
 8048e3c:	e8 1f f9 ff ff       	call   8048760 <puts@plt>
 8048e41:	e8 e8 02 00 00       	call   804912e <phase_defused>
 8048e46:	83 c4 18             	add    $0x18,%esp
 8048e49:	5b                   	pop    %ebx
 8048e4a:	c3                   	ret    

08048e4b <sig_handler>:
 8048e4b:	83 ec 18             	sub    $0x18,%esp
 8048e4e:	68 54 9f 04 08       	push   $0x8049f54
 8048e53:	e8 08 f9 ff ff       	call   8048760 <puts@plt>
 8048e58:	c7 04 24 03 00 00 00 	movl   $0x3,(%esp)
 8048e5f:	e8 ac f8 ff ff       	call   8048710 <sleep@plt>
 8048e64:	c7 04 24 16 a0 04 08 	movl   $0x804a016,(%esp)
 8048e6b:	e8 50 f8 ff ff       	call   80486c0 <printf@plt>
 8048e70:	83 c4 04             	add    $0x4,%esp
 8048e73:	ff 35 e0 b4 04 08    	pushl  0x804b4e0
 8048e79:	e8 52 f8 ff ff       	call   80486d0 <fflush@plt>
 8048e7e:	c7 04 24 01 00 00 00 	movl   $0x1,(%esp)
 8048e85:	e8 86 f8 ff ff       	call   8048710 <sleep@plt>
 8048e8a:	c7 04 24 1e a0 04 08 	movl   $0x804a01e,(%esp)
 8048e91:	e8 ca f8 ff ff       	call   8048760 <puts@plt>
 8048e96:	c7 04 24 10 00 00 00 	movl   $0x10,(%esp)
 8048e9d:	e8 de f8 ff ff       	call   8048780 <exit@plt>

08048ea2 <invalid_phase>:
 8048ea2:	83 ec 14             	sub    $0x14,%esp
 8048ea5:	ff 74 24 18          	pushl  0x18(%esp)
 8048ea9:	68 26 a0 04 08       	push   $0x804a026
 8048eae:	e8 0d f8 ff ff       	call   80486c0 <printf@plt>
 8048eb3:	c7 04 24 08 00 00 00 	movl   $0x8,(%esp)
 8048eba:	e8 c1 f8 ff ff       	call   8048780 <exit@plt>

08048ebf <string_length>:
 8048ebf:	8b 54 24 04          	mov    0x4(%esp),%edx
 8048ec3:	80 3a 00             	cmpb   $0x0,(%edx)
 8048ec6:	74 10                	je     8048ed8 <string_length+0x19>
 8048ec8:	b8 00 00 00 00       	mov    $0x0,%eax
 8048ecd:	83 c0 01             	add    $0x1,%eax
 8048ed0:	80 3c 02 00          	cmpb   $0x0,(%edx,%eax,1)
 8048ed4:	75 f7                	jne    8048ecd <string_length+0xe>
 8048ed6:	f3 c3                	repz ret 
 8048ed8:	b8 00 00 00 00       	mov    $0x0,%eax
 8048edd:	c3                   	ret    

08048ede <strings_not_equal>:
 8048ede:	57                   	push   %edi
 8048edf:	56                   	push   %esi
 8048ee0:	53                   	push   %ebx
 8048ee1:	8b 5c 24 10          	mov    0x10(%esp),%ebx
 8048ee5:	8b 74 24 14          	mov    0x14(%esp),%esi
 8048ee9:	53                   	push   %ebx
 8048eea:	e8 d0 ff ff ff       	call   8048ebf <string_length>
 8048eef:	89 c7                	mov    %eax,%edi
 8048ef1:	89 34 24             	mov    %esi,(%esp)
 8048ef4:	e8 c6 ff ff ff       	call   8048ebf <string_length>
 8048ef9:	83 c4 04             	add    $0x4,%esp
 8048efc:	ba 01 00 00 00       	mov    $0x1,%edx
 8048f01:	39 c7                	cmp    %eax,%edi
 8048f03:	75 38                	jne    8048f3d <strings_not_equal+0x5f>
 8048f05:	0f b6 03             	movzbl (%ebx),%eax
 8048f08:	84 c0                	test   %al,%al
 8048f0a:	74 1e                	je     8048f2a <strings_not_equal+0x4c>
 8048f0c:	3a 06                	cmp    (%esi),%al
 8048f0e:	74 06                	je     8048f16 <strings_not_equal+0x38>
 8048f10:	eb 1f                	jmp    8048f31 <strings_not_equal+0x53>
 8048f12:	3a 06                	cmp    (%esi),%al
 8048f14:	75 22                	jne    8048f38 <strings_not_equal+0x5a>
 8048f16:	83 c3 01             	add    $0x1,%ebx
 8048f19:	83 c6 01             	add    $0x1,%esi
 8048f1c:	0f b6 03             	movzbl (%ebx),%eax
 8048f1f:	84 c0                	test   %al,%al
 8048f21:	75 ef                	jne    8048f12 <strings_not_equal+0x34>
 8048f23:	ba 00 00 00 00       	mov    $0x0,%edx
 8048f28:	eb 13                	jmp    8048f3d <strings_not_equal+0x5f>
 8048f2a:	ba 00 00 00 00       	mov    $0x0,%edx
 8048f2f:	eb 0c                	jmp    8048f3d <strings_not_equal+0x5f>
 8048f31:	ba 01 00 00 00       	mov    $0x1,%edx
 8048f36:	eb 05                	jmp    8048f3d <strings_not_equal+0x5f>
 8048f38:	ba 01 00 00 00       	mov    $0x1,%edx
 8048f3d:	89 d0                	mov    %edx,%eax
 8048f3f:	5b                   	pop    %ebx
 8048f40:	5e                   	pop    %esi
 8048f41:	5f                   	pop    %edi
 8048f42:	c3                   	ret    

08048f43 <initialize_bomb>:
 8048f43:	83 ec 14             	sub    $0x14,%esp
 8048f46:	68 4b 8e 04 08       	push   $0x8048e4b
 8048f4b:	6a 02                	push   $0x2
 8048f4d:	e8 ae f7 ff ff       	call   8048700 <signal@plt>
 8048f52:	83 c4 1c             	add    $0x1c,%esp
 8048f55:	c3                   	ret    

08048f56 <initialize_bomb_solve>:
 8048f56:	f3 c3                	repz ret 

08048f58 <blank_line>:
 8048f58:	56                   	push   %esi
 8048f59:	53                   	push   %ebx
 8048f5a:	83 ec 04             	sub    $0x4,%esp
 8048f5d:	8b 74 24 10          	mov    0x10(%esp),%esi
 8048f61:	eb 14                	jmp    8048f77 <blank_line+0x1f>
 8048f63:	e8 e8 f8 ff ff       	call   8048850 <__ctype_b_loc@plt>
 8048f68:	83 c6 01             	add    $0x1,%esi
 8048f6b:	0f be db             	movsbl %bl,%ebx
 8048f6e:	8b 00                	mov    (%eax),%eax
 8048f70:	f6 44 58 01 20       	testb  $0x20,0x1(%eax,%ebx,2)
 8048f75:	74 0e                	je     8048f85 <blank_line+0x2d>
 8048f77:	0f b6 1e             	movzbl (%esi),%ebx
 8048f7a:	84 db                	test   %bl,%bl
 8048f7c:	75 e5                	jne    8048f63 <blank_line+0xb>
 8048f7e:	b8 01 00 00 00       	mov    $0x1,%eax
 8048f83:	eb 05                	jmp    8048f8a <blank_line+0x32>
 8048f85:	b8 00 00 00 00       	mov    $0x0,%eax
 8048f8a:	83 c4 04             	add    $0x4,%esp
 8048f8d:	5b                   	pop    %ebx
 8048f8e:	5e                   	pop    %esi
 8048f8f:	c3                   	ret    

08048f90 <skip>:
 8048f90:	53                   	push   %ebx
 8048f91:	83 ec 08             	sub    $0x8,%esp
 8048f94:	83 ec 04             	sub    $0x4,%esp
 8048f97:	ff 35 ec b4 04 08    	pushl  0x804b4ec
 8048f9d:	6a 50                	push   $0x50
 8048f9f:	a1 e8 b4 04 08       	mov    0x804b4e8,%eax
 8048fa4:	8d 04 80             	lea    (%eax,%eax,4),%eax
 8048fa7:	c1 e0 04             	shl    $0x4,%eax
 8048faa:	05 00 b5 04 08       	add    $0x804b500,%eax
 8048faf:	50                   	push   %eax
 8048fb0:	e8 3b f7 ff ff       	call   80486f0 <fgets@plt>
 8048fb5:	89 c3                	mov    %eax,%ebx
 8048fb7:	83 c4 10             	add    $0x10,%esp
 8048fba:	85 c0                	test   %eax,%eax
 8048fbc:	74 10                	je     8048fce <skip+0x3e>
 8048fbe:	83 ec 0c             	sub    $0xc,%esp
 8048fc1:	50                   	push   %eax
 8048fc2:	e8 91 ff ff ff       	call   8048f58 <blank_line>
 8048fc7:	83 c4 10             	add    $0x10,%esp
 8048fca:	85 c0                	test   %eax,%eax
 8048fcc:	75 c6                	jne    8048f94 <skip+0x4>
 8048fce:	89 d8                	mov    %ebx,%eax
 8048fd0:	83 c4 08             	add    $0x8,%esp
 8048fd3:	5b                   	pop    %ebx
 8048fd4:	c3                   	ret    

08048fd5 <explode_bomb>:
 8048fd5:	83 ec 18             	sub    $0x18,%esp
 8048fd8:	68 37 a0 04 08       	push   $0x804a037
 8048fdd:	e8 7e f7 ff ff       	call   8048760 <puts@plt>
 8048fe2:	c7 04 24 40 a0 04 08 	movl   $0x804a040,(%esp)
 8048fe9:	e8 72 f7 ff ff       	call   8048760 <puts@plt>
 8048fee:	c7 04 24 08 00 00 00 	movl   $0x8,(%esp)
 8048ff5:	e8 86 f7 ff ff       	call   8048780 <exit@plt>

08048ffa <read_six_numbers>:
 8048ffa:	83 ec 0c             	sub    $0xc,%esp
 8048ffd:	8b 44 24 14          	mov    0x14(%esp),%eax
 8049001:	8d 50 14             	lea    0x14(%eax),%edx
 8049004:	52                   	push   %edx
 8049005:	8d 50 10             	lea    0x10(%eax),%edx
 8049008:	52                   	push   %edx
 8049009:	8d 50 0c             	lea    0xc(%eax),%edx
 804900c:	52                   	push   %edx
 804900d:	8d 50 08             	lea    0x8(%eax),%edx
 8049010:	52                   	push   %edx
 8049011:	8d 50 04             	lea    0x4(%eax),%edx
 8049014:	52                   	push   %edx
 8049015:	50                   	push   %eax
 8049016:	68 57 a0 04 08       	push   $0x804a057
 804901b:	ff 74 24 2c          	pushl  0x2c(%esp)
 804901f:	e8 9c f7 ff ff       	call   80487c0 <__isoc99_sscanf@plt>
 8049024:	83 c4 20             	add    $0x20,%esp
 8049027:	83 f8 05             	cmp    $0x5,%eax
 804902a:	7f 05                	jg     8049031 <read_six_numbers+0x37>
 804902c:	e8 a4 ff ff ff       	call   8048fd5 <explode_bomb>
 8049031:	83 c4 0c             	add    $0xc,%esp
 8049034:	c3                   	ret    

08049035 <read_line>:
 8049035:	57                   	push   %edi
 8049036:	56                   	push   %esi
 8049037:	53                   	push   %ebx
 8049038:	e8 53 ff ff ff       	call   8048f90 <skip>
 804903d:	85 c0                	test   %eax,%eax
 804903f:	75 70                	jne    80490b1 <read_line+0x7c>
 8049041:	a1 c4 b4 04 08       	mov    0x804b4c4,%eax
 8049046:	39 05 ec b4 04 08    	cmp    %eax,0x804b4ec
 804904c:	75 19                	jne    8049067 <read_line+0x32>
 804904e:	83 ec 0c             	sub    $0xc,%esp
 8049051:	68 69 a0 04 08       	push   $0x804a069
 8049056:	e8 05 f7 ff ff       	call   8048760 <puts@plt>
 804905b:	c7 04 24 08 00 00 00 	movl   $0x8,(%esp)
 8049062:	e8 19 f7 ff ff       	call   8048780 <exit@plt>
 8049067:	83 ec 0c             	sub    $0xc,%esp
 804906a:	68 87 a0 04 08       	push   $0x804a087
 804906f:	e8 dc f6 ff ff       	call   8048750 <getenv@plt>
 8049074:	83 c4 10             	add    $0x10,%esp
 8049077:	85 c0                	test   %eax,%eax
 8049079:	74 0a                	je     8049085 <read_line+0x50>
 804907b:	83 ec 0c             	sub    $0xc,%esp
 804907e:	6a 00                	push   $0x0
 8049080:	e8 fb f6 ff ff       	call   8048780 <exit@plt>
 8049085:	a1 c4 b4 04 08       	mov    0x804b4c4,%eax
 804908a:	a3 ec b4 04 08       	mov    %eax,0x804b4ec
 804908f:	e8 fc fe ff ff       	call   8048f90 <skip>
 8049094:	85 c0                	test   %eax,%eax
 8049096:	75 19                	jne    80490b1 <read_line+0x7c>
 8049098:	83 ec 0c             	sub    $0xc,%esp
 804909b:	68 69 a0 04 08       	push   $0x804a069
 80490a0:	e8 bb f6 ff ff       	call   8048760 <puts@plt>
 80490a5:	c7 04 24 00 00 00 00 	movl   $0x0,(%esp)
 80490ac:	e8 cf f6 ff ff       	call   8048780 <exit@plt>
 80490b1:	8b 1d e8 b4 04 08    	mov    0x804b4e8,%ebx
 80490b7:	8d 34 9b             	lea    (%ebx,%ebx,4),%esi
 80490ba:	c1 e6 04             	shl    $0x4,%esi
 80490bd:	81 c6 00 b5 04 08    	add    $0x804b500,%esi
 80490c3:	89 f7                	mov    %esi,%edi
 80490c5:	b8 00 00 00 00       	mov    $0x0,%eax
 80490ca:	b9 ff ff ff ff       	mov    $0xffffffff,%ecx
 80490cf:	f2 ae                	repnz scas %es:(%edi),%al
 80490d1:	f7 d1                	not    %ecx
 80490d3:	83 e9 01             	sub    $0x1,%ecx
 80490d6:	83 f9 4e             	cmp    $0x4e,%ecx
 80490d9:	7e 36                	jle    8049111 <read_line+0xdc>
 80490db:	83 ec 0c             	sub    $0xc,%esp
 80490de:	68 92 a0 04 08       	push   $0x804a092
 80490e3:	e8 78 f6 ff ff       	call   8048760 <puts@plt>
 80490e8:	a1 e8 b4 04 08       	mov    0x804b4e8,%eax
 80490ed:	8d 50 01             	lea    0x1(%eax),%edx
 80490f0:	89 15 e8 b4 04 08    	mov    %edx,0x804b4e8
 80490f6:	6b c0 50             	imul   $0x50,%eax,%eax
 80490f9:	05 00 b5 04 08       	add    $0x804b500,%eax
 80490fe:	be ad a0 04 08       	mov    $0x804a0ad,%esi
 8049103:	b9 04 00 00 00       	mov    $0x4,%ecx
 8049108:	89 c7                	mov    %eax,%edi
 804910a:	f3 a5                	rep movsl %ds:(%esi),%es:(%edi)
 804910c:	e8 c4 fe ff ff       	call   8048fd5 <explode_bomb>
 8049111:	8d 04 9b             	lea    (%ebx,%ebx,4),%eax
 8049114:	c1 e0 04             	shl    $0x4,%eax
 8049117:	c6 84 01 ff b4 04 08 	movb   $0x0,0x804b4ff(%ecx,%eax,1)
 804911e:	00 
 804911f:	83 c3 01             	add    $0x1,%ebx
 8049122:	89 1d e8 b4 04 08    	mov    %ebx,0x804b4e8
 8049128:	89 f0                	mov    %esi,%eax
 804912a:	5b                   	pop    %ebx
 804912b:	5e                   	pop    %esi
 804912c:	5f                   	pop    %edi
 804912d:	c3                   	ret    

0804912e <phase_defused>:
 804912e:	83 3d e8 b4 04 08 06 	cmpl   $0x6,0x804b4e8
 8049135:	75 73                	jne    80491aa <phase_defused+0x7c>
 8049137:	83 ec 78             	sub    $0x78,%esp
 804913a:	8d 44 24 1c          	lea    0x1c(%esp),%eax
 804913e:	50                   	push   %eax
 804913f:	8d 44 24 18          	lea    0x18(%esp),%eax
 8049143:	50                   	push   %eax
 8049144:	8d 44 24 20          	lea    0x20(%esp),%eax
 8049148:	50                   	push   %eax
 8049149:	68 bd a0 04 08       	push   $0x804a0bd
 804914e:	68 f0 b5 04 08       	push   $0x804b5f0
 8049153:	e8 68 f6 ff ff       	call   80487c0 <__isoc99_sscanf@plt>
 8049158:	83 c4 20             	add    $0x20,%esp
 804915b:	83 f8 03             	cmp    $0x3,%eax
 804915e:	75 3a                	jne    804919a <phase_defused+0x6c>
 8049160:	83 ec 08             	sub    $0x8,%esp
 8049163:	68 c6 a0 04 08       	push   $0x804a0c6
 8049168:	8d 44 24 1c          	lea    0x1c(%esp),%eax
 804916c:	50                   	push   %eax
 804916d:	e8 6c fd ff ff       	call   8048ede <strings_not_equal>
 8049172:	83 c4 10             	add    $0x10,%esp
 8049175:	85 c0                	test   %eax,%eax
 8049177:	75 21                	jne    804919a <phase_defused+0x6c>
 8049179:	83 ec 0c             	sub    $0xc,%esp
 804917c:	68 8c 9f 04 08       	push   $0x8049f8c
 8049181:	e8 da f5 ff ff       	call   8048760 <puts@plt>
 8049186:	c7 04 24 b4 9f 04 08 	movl   $0x8049fb4,(%esp)
 804918d:	e8 ce f5 ff ff       	call   8048760 <puts@plt>
 8049192:	e8 58 fc ff ff       	call   8048def <secret_phase>
 8049197:	83 c4 10             	add    $0x10,%esp
 804919a:	83 ec 0c             	sub    $0xc,%esp
 804919d:	68 ec 9f 04 08       	push   $0x8049fec
 80491a2:	e8 b9 f5 ff ff       	call   8048760 <puts@plt>
 80491a7:	83 c4 7c             	add    $0x7c,%esp
 80491aa:	f3 c3                	repz ret 

080491ac <sigalrm_handler>:
 80491ac:	83 ec 10             	sub    $0x10,%esp
 80491af:	6a 00                	push   $0x0
 80491b1:	68 1c a1 04 08       	push   $0x804a11c
 80491b6:	ff 35 c0 b4 04 08    	pushl  0x804b4c0
 80491bc:	e8 df f5 ff ff       	call   80487a0 <fprintf@plt>
 80491c1:	c7 04 24 01 00 00 00 	movl   $0x1,(%esp)
 80491c8:	e8 b3 f5 ff ff       	call   8048780 <exit@plt>

080491cd <rio_readlineb>:
 80491cd:	55                   	push   %ebp
 80491ce:	57                   	push   %edi
 80491cf:	56                   	push   %esi
 80491d0:	53                   	push   %ebx
 80491d1:	83 ec 3c             	sub    $0x3c,%esp
 80491d4:	89 c6                	mov    %eax,%esi
 80491d6:	89 54 24 10          	mov    %edx,0x10(%esp)
 80491da:	89 4c 24 1c          	mov    %ecx,0x1c(%esp)
 80491de:	83 f9 01             	cmp    $0x1,%ecx
 80491e1:	0f 86 b7 00 00 00    	jbe    804929e <rio_readlineb+0xd1>
 80491e7:	89 4c 24 18          	mov    %ecx,0x18(%esp)
 80491eb:	c7 44 24 0c 01 00 00 	movl   $0x1,0xc(%esp)
 80491f2:	00 
 80491f3:	8d 6e 0c             	lea    0xc(%esi),%ebp
 80491f6:	eb 34                	jmp    804922c <rio_readlineb+0x5f>
 80491f8:	83 ec 04             	sub    $0x4,%esp
 80491fb:	68 00 20 00 00       	push   $0x2000
 8049200:	55                   	push   %ebp
 8049201:	ff 36                	pushl  (%esi)
 8049203:	e8 a8 f4 ff ff       	call   80486b0 <read@plt>
 8049208:	89 46 04             	mov    %eax,0x4(%esi)
 804920b:	83 c4 10             	add    $0x10,%esp
 804920e:	85 c0                	test   %eax,%eax
 8049210:	79 0f                	jns    8049221 <rio_readlineb+0x54>
 8049212:	e8 c9 f5 ff ff       	call   80487e0 <__errno_location@plt>
 8049217:	83 38 04             	cmpl   $0x4,(%eax)
 804921a:	74 10                	je     804922c <rio_readlineb+0x5f>
 804921c:	e9 a3 00 00 00       	jmp    80492c4 <rio_readlineb+0xf7>
 8049221:	85 c0                	test   %eax,%eax
 8049223:	0f 84 a2 00 00 00    	je     80492cb <rio_readlineb+0xfe>
 8049229:	89 6e 08             	mov    %ebp,0x8(%esi)
 804922c:	8b 7e 04             	mov    0x4(%esi),%edi
 804922f:	85 ff                	test   %edi,%edi
 8049231:	7e c5                	jle    80491f8 <rio_readlineb+0x2b>
 8049233:	85 ff                	test   %edi,%edi
 8049235:	0f 95 c3             	setne  %bl
 8049238:	0f b6 db             	movzbl %bl,%ebx
 804923b:	8b 46 08             	mov    0x8(%esi),%eax
 804923e:	83 ec 04             	sub    $0x4,%esp
 8049241:	53                   	push   %ebx
 8049242:	89 44 24 1c          	mov    %eax,0x1c(%esp)
 8049246:	50                   	push   %eax
 8049247:	8d 4c 24 3b          	lea    0x3b(%esp),%ecx
 804924b:	51                   	push   %ecx
 804924c:	e8 8f f4 ff ff       	call   80486e0 <memcpy@plt>
 8049251:	8b 44 24 24          	mov    0x24(%esp),%eax
 8049255:	01 d8                	add    %ebx,%eax
 8049257:	89 46 08             	mov    %eax,0x8(%esi)
 804925a:	29 df                	sub    %ebx,%edi
 804925c:	89 7e 04             	mov    %edi,0x4(%esi)
 804925f:	83 c4 10             	add    $0x10,%esp
 8049262:	83 fb 01             	cmp    $0x1,%ebx
 8049265:	75 17                	jne    804927e <rio_readlineb+0xb1>
 8049267:	83 44 24 10 01       	addl   $0x1,0x10(%esp)
 804926c:	8b 54 24 10          	mov    0x10(%esp),%edx
 8049270:	0f b6 44 24 2f       	movzbl 0x2f(%esp),%eax
 8049275:	88 42 ff             	mov    %al,-0x1(%edx)
 8049278:	3c 0a                	cmp    $0xa,%al
 804927a:	75 11                	jne    804928d <rio_readlineb+0xc0>
 804927c:	eb 32                	jmp    80492b0 <rio_readlineb+0xe3>
 804927e:	8b 44 24 0c          	mov    0xc(%esp),%eax
 8049282:	85 db                	test   %ebx,%ebx
 8049284:	75 37                	jne    80492bd <rio_readlineb+0xf0>
 8049286:	83 f8 01             	cmp    $0x1,%eax
 8049289:	75 25                	jne    80492b0 <rio_readlineb+0xe3>
 804928b:	eb 46                	jmp    80492d3 <rio_readlineb+0x106>
 804928d:	83 44 24 0c 01       	addl   $0x1,0xc(%esp)
 8049292:	8b 44 24 0c          	mov    0xc(%esp),%eax
 8049296:	3b 44 24 18          	cmp    0x18(%esp),%eax
 804929a:	74 0c                	je     80492a8 <rio_readlineb+0xdb>
 804929c:	eb 8e                	jmp    804922c <rio_readlineb+0x5f>
 804929e:	c7 44 24 0c 01 00 00 	movl   $0x1,0xc(%esp)
 80492a5:	00 
 80492a6:	eb 08                	jmp    80492b0 <rio_readlineb+0xe3>
 80492a8:	8b 44 24 1c          	mov    0x1c(%esp),%eax
 80492ac:	89 44 24 0c          	mov    %eax,0xc(%esp)
 80492b0:	8b 44 24 10          	mov    0x10(%esp),%eax
 80492b4:	c6 00 00             	movb   $0x0,(%eax)
 80492b7:	8b 5c 24 0c          	mov    0xc(%esp),%ebx
 80492bb:	eb 16                	jmp    80492d3 <rio_readlineb+0x106>
 80492bd:	bb ff ff ff ff       	mov    $0xffffffff,%ebx
 80492c2:	eb 0f                	jmp    80492d3 <rio_readlineb+0x106>
 80492c4:	bb ff ff ff ff       	mov    $0xffffffff,%ebx
 80492c9:	eb 02                	jmp    80492cd <rio_readlineb+0x100>
 80492cb:	89 c3                	mov    %eax,%ebx
 80492cd:	8b 44 24 0c          	mov    0xc(%esp),%eax
 80492d1:	eb af                	jmp    8049282 <rio_readlineb+0xb5>
 80492d3:	89 d8                	mov    %ebx,%eax
 80492d5:	83 c4 3c             	add    $0x3c,%esp
 80492d8:	5b                   	pop    %ebx
 80492d9:	5e                   	pop    %esi
 80492da:	5f                   	pop    %edi
 80492db:	5d                   	pop    %ebp
 80492dc:	c3                   	ret    

080492dd <submitr>:
 80492dd:	55                   	push   %ebp
 80492de:	57                   	push   %edi
 80492df:	56                   	push   %esi
 80492e0:	53                   	push   %ebx
 80492e1:	81 ec 50 a0 00 00    	sub    $0xa050,%esp
 80492e7:	8b 9c 24 78 a0 00 00 	mov    0xa078(%esp),%ebx
 80492ee:	c7 84 24 24 20 00 00 	movl   $0x0,0x2024(%esp)
 80492f5:	00 00 00 00 
 80492f9:	6a 00                	push   $0x0
 80492fb:	6a 01                	push   $0x1
 80492fd:	6a 02                	push   $0x2
 80492ff:	e8 fc f4 ff ff       	call   8048800 <socket@plt>
 8049304:	89 c5                	mov    %eax,%ebp
 8049306:	83 c4 10             	add    $0x10,%esp
 8049309:	85 c0                	test   %eax,%eax
 804930b:	79 55                	jns    8049362 <submitr+0x85>
 804930d:	8b 84 24 78 a0 00 00 	mov    0xa078(%esp),%eax
 8049314:	c7 00 45 72 72 6f    	movl   $0x6f727245,(%eax)
 804931a:	c7 40 04 72 3a 20 43 	movl   $0x43203a72,0x4(%eax)
 8049321:	c7 40 08 6c 69 65 6e 	movl   $0x6e65696c,0x8(%eax)
 8049328:	c7 40 0c 74 20 75 6e 	movl   $0x6e752074,0xc(%eax)
 804932f:	c7 40 10 61 62 6c 65 	movl   $0x656c6261,0x10(%eax)
 8049336:	c7 40 14 20 74 6f 20 	movl   $0x206f7420,0x14(%eax)
 804933d:	c7 40 18 63 72 65 61 	movl   $0x61657263,0x18(%eax)
 8049344:	c7 40 1c 74 65 20 73 	movl   $0x73206574,0x1c(%eax)
 804934b:	c7 40 20 6f 63 6b 65 	movl   $0x656b636f,0x20(%eax)
 8049352:	66 c7 40 24 74 00    	movw   $0x74,0x24(%eax)
 8049358:	b8 ff ff ff ff       	mov    $0xffffffff,%eax
 804935d:	e9 21 07 00 00       	jmp    8049a83 <submitr+0x7a6>
 8049362:	83 ec 0c             	sub    $0xc,%esp
 8049365:	ff b4 24 6c a0 00 00 	pushl  0xa06c(%esp)
 804936c:	e8 9f f4 ff ff       	call   8048810 <gethostbyname@plt>
 8049371:	83 c4 10             	add    $0x10,%esp
 8049374:	85 c0                	test   %eax,%eax
 8049376:	75 73                	jne    80493eb <submitr+0x10e>
 8049378:	8b 84 24 78 a0 00 00 	mov    0xa078(%esp),%eax
 804937f:	c7 00 45 72 72 6f    	movl   $0x6f727245,(%eax)
 8049385:	c7 40 04 72 3a 20 44 	movl   $0x44203a72,0x4(%eax)
 804938c:	c7 40 08 4e 53 20 69 	movl   $0x6920534e,0x8(%eax)
 8049393:	c7 40 0c 73 20 75 6e 	movl   $0x6e752073,0xc(%eax)
 804939a:	c7 40 10 61 62 6c 65 	movl   $0x656c6261,0x10(%eax)
 80493a1:	c7 40 14 20 74 6f 20 	movl   $0x206f7420,0x14(%eax)
 80493a8:	c7 40 18 72 65 73 6f 	movl   $0x6f736572,0x18(%eax)
 80493af:	c7 40 1c 6c 76 65 20 	movl   $0x2065766c,0x1c(%eax)
 80493b6:	c7 40 20 73 65 72 76 	movl   $0x76726573,0x20(%eax)
 80493bd:	c7 40 24 65 72 20 61 	movl   $0x61207265,0x24(%eax)
 80493c4:	c7 40 28 64 64 72 65 	movl   $0x65726464,0x28(%eax)
 80493cb:	66 c7 40 2c 73 73    	movw   $0x7373,0x2c(%eax)
 80493d1:	c6 40 2e 00          	movb   $0x0,0x2e(%eax)
 80493d5:	83 ec 0c             	sub    $0xc,%esp
 80493d8:	55                   	push   %ebp
 80493d9:	e8 62 f4 ff ff       	call   8048840 <close@plt>
 80493de:	83 c4 10             	add    $0x10,%esp
 80493e1:	b8 ff ff ff ff       	mov    $0xffffffff,%eax
 80493e6:	e9 98 06 00 00       	jmp    8049a83 <submitr+0x7a6>
 80493eb:	8d b4 24 30 a0 00 00 	lea    0xa030(%esp),%esi
 80493f2:	c7 84 24 30 a0 00 00 	movl   $0x0,0xa030(%esp)
 80493f9:	00 00 00 00 
 80493fd:	c7 84 24 34 a0 00 00 	movl   $0x0,0xa034(%esp)
 8049404:	00 00 00 00 
 8049408:	c7 84 24 38 a0 00 00 	movl   $0x0,0xa038(%esp)
 804940f:	00 00 00 00 
 8049413:	c7 84 24 3c a0 00 00 	movl   $0x0,0xa03c(%esp)
 804941a:	00 00 00 00 
 804941e:	66 c7 84 24 30 a0 00 	movw   $0x2,0xa030(%esp)
 8049425:	00 02 00 
 8049428:	83 ec 04             	sub    $0x4,%esp
 804942b:	ff 70 0c             	pushl  0xc(%eax)
 804942e:	8d 94 24 3c a0 00 00 	lea    0xa03c(%esp),%edx
 8049435:	52                   	push   %edx
 8049436:	8b 40 10             	mov    0x10(%eax),%eax
 8049439:	ff 30                	pushl  (%eax)
 804943b:	e8 f0 f2 ff ff       	call   8048730 <bcopy@plt>
 8049440:	0f b7 84 24 74 a0 00 	movzwl 0xa074(%esp),%eax
 8049447:	00 
 8049448:	66 c1 c8 08          	ror    $0x8,%ax
 804944c:	66 89 84 24 42 a0 00 	mov    %ax,0xa042(%esp)
 8049453:	00 
 8049454:	83 c4 0c             	add    $0xc,%esp
 8049457:	6a 10                	push   $0x10
 8049459:	56                   	push   %esi
 804945a:	55                   	push   %ebp
 804945b:	e8 d0 f3 ff ff       	call   8048830 <connect@plt>
 8049460:	83 c4 10             	add    $0x10,%esp
 8049463:	85 c0                	test   %eax,%eax
 8049465:	79 65                	jns    80494cc <submitr+0x1ef>
 8049467:	8b 84 24 78 a0 00 00 	mov    0xa078(%esp),%eax
 804946e:	c7 00 45 72 72 6f    	movl   $0x6f727245,(%eax)
 8049474:	c7 40 04 72 3a 20 55 	movl   $0x55203a72,0x4(%eax)
 804947b:	c7 40 08 6e 61 62 6c 	movl   $0x6c62616e,0x8(%eax)
 8049482:	c7 40 0c 65 20 74 6f 	movl   $0x6f742065,0xc(%eax)
 8049489:	c7 40 10 20 63 6f 6e 	movl   $0x6e6f6320,0x10(%eax)
 8049490:	c7 40 14 6e 65 63 74 	movl   $0x7463656e,0x14(%eax)
 8049497:	c7 40 18 20 74 6f 20 	movl   $0x206f7420,0x18(%eax)
 804949e:	c7 40 1c 74 68 65 20 	movl   $0x20656874,0x1c(%eax)
 80494a5:	c7 40 20 73 65 72 76 	movl   $0x76726573,0x20(%eax)
 80494ac:	66 c7 40 24 65 72    	movw   $0x7265,0x24(%eax)
 80494b2:	c6 40 26 00          	movb   $0x0,0x26(%eax)
 80494b6:	83 ec 0c             	sub    $0xc,%esp
 80494b9:	55                   	push   %ebp
 80494ba:	e8 81 f3 ff ff       	call   8048840 <close@plt>
 80494bf:	83 c4 10             	add    $0x10,%esp
 80494c2:	b8 ff ff ff ff       	mov    $0xffffffff,%eax
 80494c7:	e9 b7 05 00 00       	jmp    8049a83 <submitr+0x7a6>
 80494cc:	ba ff ff ff ff       	mov    $0xffffffff,%edx
 80494d1:	89 df                	mov    %ebx,%edi
 80494d3:	b8 00 00 00 00       	mov    $0x0,%eax
 80494d8:	89 d1                	mov    %edx,%ecx
 80494da:	f2 ae                	repnz scas %es:(%edi),%al
 80494dc:	89 ce                	mov    %ecx,%esi
 80494de:	f7 d6                	not    %esi
 80494e0:	8b bc 24 68 a0 00 00 	mov    0xa068(%esp),%edi
 80494e7:	89 d1                	mov    %edx,%ecx
 80494e9:	f2 ae                	repnz scas %es:(%edi),%al
 80494eb:	89 4c 24 08          	mov    %ecx,0x8(%esp)
 80494ef:	8b bc 24 6c a0 00 00 	mov    0xa06c(%esp),%edi
 80494f6:	89 d1                	mov    %edx,%ecx
 80494f8:	f2 ae                	repnz scas %es:(%edi),%al
 80494fa:	89 cf                	mov    %ecx,%edi
 80494fc:	f7 d7                	not    %edi
 80494fe:	89 7c 24 0c          	mov    %edi,0xc(%esp)
 8049502:	8b bc 24 70 a0 00 00 	mov    0xa070(%esp),%edi
 8049509:	89 d1                	mov    %edx,%ecx
 804950b:	f2 ae                	repnz scas %es:(%edi),%al
 804950d:	8b 54 24 0c          	mov    0xc(%esp),%edx
 8049511:	2b 54 24 08          	sub    0x8(%esp),%edx
 8049515:	29 ca                	sub    %ecx,%edx
 8049517:	8d 44 76 fd          	lea    -0x3(%esi,%esi,2),%eax
 804951b:	8d 44 02 7b          	lea    0x7b(%edx,%eax,1),%eax
 804951f:	3d 00 20 00 00       	cmp    $0x2000,%eax
 8049524:	76 7e                	jbe    80495a4 <submitr+0x2c7>
 8049526:	8b 84 24 78 a0 00 00 	mov    0xa078(%esp),%eax
 804952d:	c7 00 45 72 72 6f    	movl   $0x6f727245,(%eax)
 8049533:	c7 40 04 72 3a 20 52 	movl   $0x52203a72,0x4(%eax)
 804953a:	c7 40 08 65 73 75 6c 	movl   $0x6c757365,0x8(%eax)
 8049541:	c7 40 0c 74 20 73 74 	movl   $0x74732074,0xc(%eax)
 8049548:	c7 40 10 72 69 6e 67 	movl   $0x676e6972,0x10(%eax)
 804954f:	c7 40 14 20 74 6f 6f 	movl   $0x6f6f7420,0x14(%eax)
 8049556:	c7 40 18 20 6c 61 72 	movl   $0x72616c20,0x18(%eax)
 804955d:	c7 40 1c 67 65 2e 20 	movl   $0x202e6567,0x1c(%eax)
 8049564:	c7 40 20 49 6e 63 72 	movl   $0x72636e49,0x20(%eax)
 804956b:	c7 40 24 65 61 73 65 	movl   $0x65736165,0x24(%eax)
 8049572:	c7 40 28 20 53 55 42 	movl   $0x42555320,0x28(%eax)
 8049579:	c7 40 2c 4d 49 54 52 	movl   $0x5254494d,0x2c(%eax)
 8049580:	c7 40 30 5f 4d 41 58 	movl   $0x58414d5f,0x30(%eax)
 8049587:	c7 40 34 42 55 46 00 	movl   $0x465542,0x34(%eax)
 804958e:	83 ec 0c             	sub    $0xc,%esp
 8049591:	55                   	push   %ebp
 8049592:	e8 a9 f2 ff ff       	call   8048840 <close@plt>
 8049597:	83 c4 10             	add    $0x10,%esp
 804959a:	b8 ff ff ff ff       	mov    $0xffffffff,%eax
 804959f:	e9 df 04 00 00       	jmp    8049a83 <submitr+0x7a6>
 80495a4:	8d 94 24 24 40 00 00 	lea    0x4024(%esp),%edx
 80495ab:	b9 00 08 00 00       	mov    $0x800,%ecx
 80495b0:	b8 00 00 00 00       	mov    $0x0,%eax
 80495b5:	89 d7                	mov    %edx,%edi
 80495b7:	f3 ab                	rep stos %eax,%es:(%edi)
 80495b9:	89 df                	mov    %ebx,%edi
 80495bb:	b9 ff ff ff ff       	mov    $0xffffffff,%ecx
 80495c0:	f2 ae                	repnz scas %es:(%edi),%al
 80495c2:	f7 d1                	not    %ecx
 80495c4:	89 ce                	mov    %ecx,%esi
 80495c6:	83 ee 01             	sub    $0x1,%esi
 80495c9:	0f 84 58 04 00 00    	je     8049a27 <submitr+0x74a>
 80495cf:	89 d7                	mov    %edx,%edi
 80495d1:	0f b6 03             	movzbl (%ebx),%eax
 80495d4:	3c 2a                	cmp    $0x2a,%al
 80495d6:	0f 94 c1             	sete   %cl
 80495d9:	8d 50 d3             	lea    -0x2d(%eax),%edx
 80495dc:	80 fa 01             	cmp    $0x1,%dl
 80495df:	0f 96 c2             	setbe  %dl
 80495e2:	08 d1                	or     %dl,%cl
 80495e4:	75 19                	jne    80495ff <submitr+0x322>
 80495e6:	3c 5f                	cmp    $0x5f,%al
 80495e8:	74 15                	je     80495ff <submitr+0x322>
 80495ea:	8d 50 d0             	lea    -0x30(%eax),%edx
 80495ed:	80 fa 09             	cmp    $0x9,%dl
 80495f0:	76 0d                	jbe    80495ff <submitr+0x322>
 80495f2:	89 c2                	mov    %eax,%edx
 80495f4:	83 e2 df             	and    $0xffffffdf,%edx
 80495f7:	83 ea 41             	sub    $0x41,%edx
 80495fa:	80 fa 19             	cmp    $0x19,%dl
 80495fd:	77 07                	ja     8049606 <submitr+0x329>
 80495ff:	88 07                	mov    %al,(%edi)
 8049601:	8d 7f 01             	lea    0x1(%edi),%edi
 8049604:	eb 4f                	jmp    8049655 <submitr+0x378>
 8049606:	3c 20                	cmp    $0x20,%al
 8049608:	75 08                	jne    8049612 <submitr+0x335>
 804960a:	c6 07 2b             	movb   $0x2b,(%edi)
 804960d:	8d 7f 01             	lea    0x1(%edi),%edi
 8049610:	eb 43                	jmp    8049655 <submitr+0x378>
 8049612:	8d 50 e0             	lea    -0x20(%eax),%edx
 8049615:	80 fa 5f             	cmp    $0x5f,%dl
 8049618:	76 08                	jbe    8049622 <submitr+0x345>
 804961a:	3c 09                	cmp    $0x9,%al
 804961c:	0f 85 b5 03 00 00    	jne    80499d7 <submitr+0x6fa>
 8049622:	83 ec 04             	sub    $0x4,%esp
 8049625:	0f b6 c0             	movzbl %al,%eax
 8049628:	50                   	push   %eax
 8049629:	68 28 a2 04 08       	push   $0x804a228
 804962e:	8d 44 24 24          	lea    0x24(%esp),%eax
 8049632:	50                   	push   %eax
 8049633:	e8 b8 f1 ff ff       	call   80487f0 <sprintf@plt>
 8049638:	0f b6 44 24 28       	movzbl 0x28(%esp),%eax
 804963d:	88 07                	mov    %al,(%edi)
 804963f:	0f b6 44 24 29       	movzbl 0x29(%esp),%eax
 8049644:	88 47 01             	mov    %al,0x1(%edi)
 8049647:	0f b6 44 24 2a       	movzbl 0x2a(%esp),%eax
 804964c:	88 47 02             	mov    %al,0x2(%edi)
 804964f:	83 c4 10             	add    $0x10,%esp
 8049652:	8d 7f 03             	lea    0x3(%edi),%edi
 8049655:	83 c3 01             	add    $0x1,%ebx
 8049658:	83 ee 01             	sub    $0x1,%esi
 804965b:	0f 85 70 ff ff ff    	jne    80495d1 <submitr+0x2f4>
 8049661:	e9 c1 03 00 00       	jmp    8049a27 <submitr+0x74a>
 8049666:	83 ec 04             	sub    $0x4,%esp
 8049669:	53                   	push   %ebx
 804966a:	56                   	push   %esi
 804966b:	55                   	push   %ebp
 804966c:	e8 3f f1 ff ff       	call   80487b0 <write@plt>
 8049671:	83 c4 10             	add    $0x10,%esp
 8049674:	85 c0                	test   %eax,%eax
 8049676:	7f 0f                	jg     8049687 <submitr+0x3aa>
 8049678:	e8 63 f1 ff ff       	call   80487e0 <__errno_location@plt>
 804967d:	83 38 04             	cmpl   $0x4,(%eax)
 8049680:	75 0f                	jne    8049691 <submitr+0x3b4>
 8049682:	b8 00 00 00 00       	mov    $0x0,%eax
 8049687:	01 c6                	add    %eax,%esi
 8049689:	29 c3                	sub    %eax,%ebx
 804968b:	75 d9                	jne    8049666 <submitr+0x389>
 804968d:	85 ff                	test   %edi,%edi
 804968f:	79 69                	jns    80496fa <submitr+0x41d>
 8049691:	8b 84 24 78 a0 00 00 	mov    0xa078(%esp),%eax
 8049698:	c7 00 45 72 72 6f    	movl   $0x6f727245,(%eax)
 804969e:	c7 40 04 72 3a 20 43 	movl   $0x43203a72,0x4(%eax)
 80496a5:	c7 40 08 6c 69 65 6e 	movl   $0x6e65696c,0x8(%eax)
 80496ac:	c7 40 0c 74 20 75 6e 	movl   $0x6e752074,0xc(%eax)
 80496b3:	c7 40 10 61 62 6c 65 	movl   $0x656c6261,0x10(%eax)
 80496ba:	c7 40 14 20 74 6f 20 	movl   $0x206f7420,0x14(%eax)
 80496c1:	c7 40 18 77 72 69 74 	movl   $0x74697277,0x18(%eax)
 80496c8:	c7 40 1c 65 20 74 6f 	movl   $0x6f742065,0x1c(%eax)
 80496cf:	c7 40 20 20 74 68 65 	movl   $0x65687420,0x20(%eax)
 80496d6:	c7 40 24 20 73 65 72 	movl   $0x72657320,0x24(%eax)
 80496dd:	c7 40 28 76 65 72 00 	movl   $0x726576,0x28(%eax)
 80496e4:	83 ec 0c             	sub    $0xc,%esp
 80496e7:	55                   	push   %ebp
 80496e8:	e8 53 f1 ff ff       	call   8048840 <close@plt>
 80496ed:	83 c4 10             	add    $0x10,%esp
 80496f0:	b8 ff ff ff ff       	mov    $0xffffffff,%eax
 80496f5:	e9 89 03 00 00       	jmp    8049a83 <submitr+0x7a6>
 80496fa:	89 ac 24 24 80 00 00 	mov    %ebp,0x8024(%esp)
 8049701:	c7 84 24 28 80 00 00 	movl   $0x0,0x8028(%esp)
 8049708:	00 00 00 00 
 804970c:	8d 84 24 30 80 00 00 	lea    0x8030(%esp),%eax
 8049713:	89 84 24 2c 80 00 00 	mov    %eax,0x802c(%esp)
 804971a:	b9 00 20 00 00       	mov    $0x2000,%ecx
 804971f:	8d 94 24 24 60 00 00 	lea    0x6024(%esp),%edx
 8049726:	8d 84 24 24 80 00 00 	lea    0x8024(%esp),%eax
 804972d:	e8 9b fa ff ff       	call   80491cd <rio_readlineb>
 8049732:	85 c0                	test   %eax,%eax
 8049734:	7f 7d                	jg     80497b3 <submitr+0x4d6>
 8049736:	8b 84 24 78 a0 00 00 	mov    0xa078(%esp),%eax
 804973d:	c7 00 45 72 72 6f    	movl   $0x6f727245,(%eax)
 8049743:	c7 40 04 72 3a 20 43 	movl   $0x43203a72,0x4(%eax)
 804974a:	c7 40 08 6c 69 65 6e 	movl   $0x6e65696c,0x8(%eax)
 8049751:	c7 40 0c 74 20 75 6e 	movl   $0x6e752074,0xc(%eax)
 8049758:	c7 40 10 61 62 6c 65 	movl   $0x656c6261,0x10(%eax)
 804975f:	c7 40 14 20 74 6f 20 	movl   $0x206f7420,0x14(%eax)
 8049766:	c7 40 18 72 65 61 64 	movl   $0x64616572,0x18(%eax)
 804976d:	c7 40 1c 20 66 69 72 	movl   $0x72696620,0x1c(%eax)
 8049774:	c7 40 20 73 74 20 68 	movl   $0x68207473,0x20(%eax)
 804977b:	c7 40 24 65 61 64 65 	movl   $0x65646165,0x24(%eax)
 8049782:	c7 40 28 72 20 66 72 	movl   $0x72662072,0x28(%eax)
 8049789:	c7 40 2c 6f 6d 20 73 	movl   $0x73206d6f,0x2c(%eax)
 8049790:	c7 40 30 65 72 76 65 	movl   $0x65767265,0x30(%eax)
 8049797:	66 c7 40 34 72 00    	movw   $0x72,0x34(%eax)
 804979d:	83 ec 0c             	sub    $0xc,%esp
 80497a0:	55                   	push   %ebp
 80497a1:	e8 9a f0 ff ff       	call   8048840 <close@plt>
 80497a6:	83 c4 10             	add    $0x10,%esp
 80497a9:	b8 ff ff ff ff       	mov    $0xffffffff,%eax
 80497ae:	e9 d0 02 00 00       	jmp    8049a83 <submitr+0x7a6>
 80497b3:	83 ec 0c             	sub    $0xc,%esp
 80497b6:	8d 44 24 2c          	lea    0x2c(%esp),%eax
 80497ba:	50                   	push   %eax
 80497bb:	8d 84 24 30 20 00 00 	lea    0x2030(%esp),%eax
 80497c2:	50                   	push   %eax
 80497c3:	8d 84 24 38 20 00 00 	lea    0x2038(%esp),%eax
 80497ca:	50                   	push   %eax
 80497cb:	68 2f a2 04 08       	push   $0x804a22f
 80497d0:	8d 84 24 40 60 00 00 	lea    0x6040(%esp),%eax
 80497d7:	50                   	push   %eax
 80497d8:	e8 e3 ef ff ff       	call   80487c0 <__isoc99_sscanf@plt>
 80497dd:	8b 84 24 40 20 00 00 	mov    0x2040(%esp),%eax
 80497e4:	83 c4 20             	add    $0x20,%esp
 80497e7:	3d c8 00 00 00       	cmp    $0xc8,%eax
 80497ec:	0f 84 bc 00 00 00    	je     80498ae <submitr+0x5d1>
 80497f2:	8d 54 24 20          	lea    0x20(%esp),%edx
 80497f6:	52                   	push   %edx
 80497f7:	50                   	push   %eax
 80497f8:	68 40 a1 04 08       	push   $0x804a140
 80497fd:	ff b4 24 84 a0 00 00 	pushl  0xa084(%esp)
 8049804:	e8 e7 ef ff ff       	call   80487f0 <sprintf@plt>
 8049809:	89 2c 24             	mov    %ebp,(%esp)
 804980c:	e8 2f f0 ff ff       	call   8048840 <close@plt>
 8049811:	83 c4 10             	add    $0x10,%esp
 8049814:	b8 ff ff ff ff       	mov    $0xffffffff,%eax
 8049819:	e9 65 02 00 00       	jmp    8049a83 <submitr+0x7a6>
 804981e:	b9 00 20 00 00       	mov    $0x2000,%ecx
 8049823:	8d 94 24 24 60 00 00 	lea    0x6024(%esp),%edx
 804982a:	8d 84 24 24 80 00 00 	lea    0x8024(%esp),%eax
 8049831:	e8 97 f9 ff ff       	call   80491cd <rio_readlineb>
 8049836:	85 c0                	test   %eax,%eax
 8049838:	7f 74                	jg     80498ae <submitr+0x5d1>
 804983a:	8b 84 24 78 a0 00 00 	mov    0xa078(%esp),%eax
 8049841:	c7 00 45 72 72 6f    	movl   $0x6f727245,(%eax)
 8049847:	c7 40 04 72 3a 20 43 	movl   $0x43203a72,0x4(%eax)
 804984e:	c7 40 08 6c 69 65 6e 	movl   $0x6e65696c,0x8(%eax)
 8049855:	c7 40 0c 74 20 75 6e 	movl   $0x6e752074,0xc(%eax)
 804985c:	c7 40 10 61 62 6c 65 	movl   $0x656c6261,0x10(%eax)
 8049863:	c7 40 14 20 74 6f 20 	movl   $0x206f7420,0x14(%eax)
 804986a:	c7 40 18 72 65 61 64 	movl   $0x64616572,0x18(%eax)
 8049871:	c7 40 1c 20 68 65 61 	movl   $0x61656820,0x1c(%eax)
 8049878:	c7 40 20 64 65 72 73 	movl   $0x73726564,0x20(%eax)
 804987f:	c7 40 24 20 66 72 6f 	movl   $0x6f726620,0x24(%eax)
 8049886:	c7 40 28 6d 20 73 65 	movl   $0x6573206d,0x28(%eax)
 804988d:	c7 40 2c 72 76 65 72 	movl   $0x72657672,0x2c(%eax)
 8049894:	c6 40 30 00          	movb   $0x0,0x30(%eax)
 8049898:	83 ec 0c             	sub    $0xc,%esp
 804989b:	55                   	push   %ebp
 804989c:	e8 9f ef ff ff       	call   8048840 <close@plt>
 80498a1:	83 c4 10             	add    $0x10,%esp
 80498a4:	b8 ff ff ff ff       	mov    $0xffffffff,%eax
 80498a9:	e9 d5 01 00 00       	jmp    8049a83 <submitr+0x7a6>
 80498ae:	80 bc 24 24 60 00 00 	cmpb   $0xd,0x6024(%esp)
 80498b5:	0d 
 80498b6:	0f 85 62 ff ff ff    	jne    804981e <submitr+0x541>
 80498bc:	80 bc 24 25 60 00 00 	cmpb   $0xa,0x6025(%esp)
 80498c3:	0a 
 80498c4:	0f 85 54 ff ff ff    	jne    804981e <submitr+0x541>
 80498ca:	80 bc 24 26 60 00 00 	cmpb   $0x0,0x6026(%esp)
 80498d1:	00 
 80498d2:	0f 85 46 ff ff ff    	jne    804981e <submitr+0x541>
 80498d8:	b9 00 20 00 00       	mov    $0x2000,%ecx
 80498dd:	8d 94 24 24 60 00 00 	lea    0x6024(%esp),%edx
 80498e4:	8d 84 24 24 80 00 00 	lea    0x8024(%esp),%eax
 80498eb:	e8 dd f8 ff ff       	call   80491cd <rio_readlineb>
 80498f0:	85 c0                	test   %eax,%eax
 80498f2:	7f 7e                	jg     8049972 <submitr+0x695>
 80498f4:	8b 84 24 78 a0 00 00 	mov    0xa078(%esp),%eax
 80498fb:	c7 00 45 72 72 6f    	movl   $0x6f727245,(%eax)
 8049901:	c7 40 04 72 3a 20 43 	movl   $0x43203a72,0x4(%eax)
 8049908:	c7 40 08 6c 69 65 6e 	movl   $0x6e65696c,0x8(%eax)
 804990f:	c7 40 0c 74 20 75 6e 	movl   $0x6e752074,0xc(%eax)
 8049916:	c7 40 10 61 62 6c 65 	movl   $0x656c6261,0x10(%eax)
 804991d:	c7 40 14 20 74 6f 20 	movl   $0x206f7420,0x14(%eax)
 8049924:	c7 40 18 72 65 61 64 	movl   $0x64616572,0x18(%eax)
 804992b:	c7 40 1c 20 73 74 61 	movl   $0x61747320,0x1c(%eax)
 8049932:	c7 40 20 74 75 73 20 	movl   $0x20737574,0x20(%eax)
 8049939:	c7 40 24 6d 65 73 73 	movl   $0x7373656d,0x24(%eax)
 8049940:	c7 40 28 61 67 65 20 	movl   $0x20656761,0x28(%eax)
 8049947:	c7 40 2c 66 72 6f 6d 	movl   $0x6d6f7266,0x2c(%eax)
 804994e:	c7 40 30 20 73 65 72 	movl   $0x72657320,0x30(%eax)
 8049955:	c7 40 34 76 65 72 00 	movl   $0x726576,0x34(%eax)
 804995c:	83 ec 0c             	sub    $0xc,%esp
 804995f:	55                   	push   %ebp
 8049960:	e8 db ee ff ff       	call   8048840 <close@plt>
 8049965:	83 c4 10             	add    $0x10,%esp
 8049968:	b8 ff ff ff ff       	mov    $0xffffffff,%eax
 804996d:	e9 11 01 00 00       	jmp    8049a83 <submitr+0x7a6>
 8049972:	83 ec 08             	sub    $0x8,%esp
 8049975:	8d 84 24 2c 60 00 00 	lea    0x602c(%esp),%eax
 804997c:	50                   	push   %eax
 804997d:	ff b4 24 84 a0 00 00 	pushl  0xa084(%esp)
 8049984:	e8 b7 ed ff ff       	call   8048740 <strcpy@plt>
 8049989:	89 2c 24             	mov    %ebp,(%esp)
 804998c:	e8 af ee ff ff       	call   8048840 <close@plt>
 8049991:	8b 84 24 88 a0 00 00 	mov    0xa088(%esp),%eax
 8049998:	0f b6 10             	movzbl (%eax),%edx
 804999b:	b8 4f 00 00 00       	mov    $0x4f,%eax
 80499a0:	83 c4 10             	add    $0x10,%esp
 80499a3:	29 d0                	sub    %edx,%eax
 80499a5:	75 21                	jne    80499c8 <submitr+0x6eb>
 80499a7:	8b 84 24 78 a0 00 00 	mov    0xa078(%esp),%eax
 80499ae:	0f b6 50 01          	movzbl 0x1(%eax),%edx
 80499b2:	b8 4b 00 00 00       	mov    $0x4b,%eax
 80499b7:	29 d0                	sub    %edx,%eax
 80499b9:	75 0d                	jne    80499c8 <submitr+0x6eb>
 80499bb:	8b 84 24 78 a0 00 00 	mov    0xa078(%esp),%eax
 80499c2:	0f b6 40 02          	movzbl 0x2(%eax),%eax
 80499c6:	f7 d8                	neg    %eax
 80499c8:	85 c0                	test   %eax,%eax
 80499ca:	0f 95 c0             	setne  %al
 80499cd:	0f b6 c0             	movzbl %al,%eax
 80499d0:	f7 d8                	neg    %eax
 80499d2:	e9 ac 00 00 00       	jmp    8049a83 <submitr+0x7a6>
 80499d7:	a1 70 a1 04 08       	mov    0x804a170,%eax
 80499dc:	8b b4 24 78 a0 00 00 	mov    0xa078(%esp),%esi
 80499e3:	89 06                	mov    %eax,(%esi)
 80499e5:	a1 af a1 04 08       	mov    0x804a1af,%eax
 80499ea:	8b b4 24 78 a0 00 00 	mov    0xa078(%esp),%esi
 80499f1:	89 46 3f             	mov    %eax,0x3f(%esi)
 80499f4:	8b 84 24 78 a0 00 00 	mov    0xa078(%esp),%eax
 80499fb:	8d 78 04             	lea    0x4(%eax),%edi
 80499fe:	83 e7 fc             	and    $0xfffffffc,%edi
 8049a01:	29 f8                	sub    %edi,%eax
 8049a03:	be 70 a1 04 08       	mov    $0x804a170,%esi
 8049a08:	29 c6                	sub    %eax,%esi
 8049a0a:	83 c0 43             	add    $0x43,%eax
 8049a0d:	c1 e8 02             	shr    $0x2,%eax
 8049a10:	89 c1                	mov    %eax,%ecx
 8049a12:	f3 a5                	rep movsl %ds:(%esi),%es:(%edi)
 8049a14:	83 ec 0c             	sub    $0xc,%esp
 8049a17:	55                   	push   %ebp
 8049a18:	e8 23 ee ff ff       	call   8048840 <close@plt>
 8049a1d:	83 c4 10             	add    $0x10,%esp
 8049a20:	b8 ff ff ff ff       	mov    $0xffffffff,%eax
 8049a25:	eb 5c                	jmp    8049a83 <submitr+0x7a6>
 8049a27:	83 ec 08             	sub    $0x8,%esp
 8049a2a:	8d 84 24 2c 40 00 00 	lea    0x402c(%esp),%eax
 8049a31:	50                   	push   %eax
 8049a32:	ff b4 24 7c a0 00 00 	pushl  0xa07c(%esp)
 8049a39:	ff b4 24 7c a0 00 00 	pushl  0xa07c(%esp)
 8049a40:	ff b4 24 7c a0 00 00 	pushl  0xa07c(%esp)
 8049a47:	68 b4 a1 04 08       	push   $0x804a1b4
 8049a4c:	8d bc 24 40 60 00 00 	lea    0x6040(%esp),%edi
 8049a53:	57                   	push   %edi
 8049a54:	e8 97 ed ff ff       	call   80487f0 <sprintf@plt>
 8049a59:	b8 00 00 00 00       	mov    $0x0,%eax
 8049a5e:	b9 ff ff ff ff       	mov    $0xffffffff,%ecx
 8049a63:	f2 ae                	repnz scas %es:(%edi),%al
 8049a65:	f7 d1                	not    %ecx
 8049a67:	8d 79 ff             	lea    -0x1(%ecx),%edi
 8049a6a:	83 c4 20             	add    $0x20,%esp
 8049a6d:	89 fb                	mov    %edi,%ebx
 8049a6f:	8d b4 24 24 60 00 00 	lea    0x6024(%esp),%esi
 8049a76:	85 ff                	test   %edi,%edi
 8049a78:	0f 85 e8 fb ff ff    	jne    8049666 <submitr+0x389>
 8049a7e:	e9 77 fc ff ff       	jmp    80496fa <submitr+0x41d>
 8049a83:	81 c4 4c a0 00 00    	add    $0xa04c,%esp
 8049a89:	5b                   	pop    %ebx
 8049a8a:	5e                   	pop    %esi
 8049a8b:	5f                   	pop    %edi
 8049a8c:	5d                   	pop    %ebp
 8049a8d:	c3                   	ret    

08049a8e <init_timeout>:
 8049a8e:	53                   	push   %ebx
 8049a8f:	83 ec 08             	sub    $0x8,%esp
 8049a92:	8b 5c 24 10          	mov    0x10(%esp),%ebx
 8049a96:	85 db                	test   %ebx,%ebx
 8049a98:	74 23                	je     8049abd <init_timeout+0x2f>
 8049a9a:	83 ec 08             	sub    $0x8,%esp
 8049a9d:	68 ac 91 04 08       	push   $0x80491ac
 8049aa2:	6a 0e                	push   $0xe
 8049aa4:	e8 57 ec ff ff       	call   8048700 <signal@plt>
 8049aa9:	89 d8                	mov    %ebx,%eax
 8049aab:	c1 f8 1f             	sar    $0x1f,%eax
 8049aae:	f7 d0                	not    %eax
 8049ab0:	21 d8                	and    %ebx,%eax
 8049ab2:	89 04 24             	mov    %eax,(%esp)
 8049ab5:	e8 66 ec ff ff       	call   8048720 <alarm@plt>
 8049aba:	83 c4 10             	add    $0x10,%esp
 8049abd:	83 c4 08             	add    $0x8,%esp
 8049ac0:	5b                   	pop    %ebx
 8049ac1:	c3                   	ret    

08049ac2 <init_driver>:
 8049ac2:	57                   	push   %edi
 8049ac3:	56                   	push   %esi
 8049ac4:	53                   	push   %ebx
 8049ac5:	83 ec 18             	sub    $0x18,%esp
 8049ac8:	8b 74 24 28          	mov    0x28(%esp),%esi
 8049acc:	6a 01                	push   $0x1
 8049ace:	6a 0d                	push   $0xd
 8049ad0:	e8 2b ec ff ff       	call   8048700 <signal@plt>
 8049ad5:	83 c4 08             	add    $0x8,%esp
 8049ad8:	6a 01                	push   $0x1
 8049ada:	6a 1d                	push   $0x1d
 8049adc:	e8 1f ec ff ff       	call   8048700 <signal@plt>
 8049ae1:	83 c4 08             	add    $0x8,%esp
 8049ae4:	6a 01                	push   $0x1
 8049ae6:	6a 1d                	push   $0x1d
 8049ae8:	e8 13 ec ff ff       	call   8048700 <signal@plt>
 8049aed:	83 c4 0c             	add    $0xc,%esp
 8049af0:	6a 00                	push   $0x0
 8049af2:	6a 01                	push   $0x1
 8049af4:	6a 02                	push   $0x2
 8049af6:	e8 05 ed ff ff       	call   8048800 <socket@plt>
 8049afb:	89 c3                	mov    %eax,%ebx
 8049afd:	83 c4 10             	add    $0x10,%esp
 8049b00:	85 c0                	test   %eax,%eax
 8049b02:	79 4e                	jns    8049b52 <init_driver+0x90>
 8049b04:	c7 06 45 72 72 6f    	movl   $0x6f727245,(%esi)
 8049b0a:	c7 46 04 72 3a 20 43 	movl   $0x43203a72,0x4(%esi)
 8049b11:	c7 46 08 6c 69 65 6e 	movl   $0x6e65696c,0x8(%esi)
 8049b18:	c7 46 0c 74 20 75 6e 	movl   $0x6e752074,0xc(%esi)
 8049b1f:	c7 46 10 61 62 6c 65 	movl   $0x656c6261,0x10(%esi)
 8049b26:	c7 46 14 20 74 6f 20 	movl   $0x206f7420,0x14(%esi)
 8049b2d:	c7 46 18 63 72 65 61 	movl   $0x61657263,0x18(%esi)
 8049b34:	c7 46 1c 74 65 20 73 	movl   $0x73206574,0x1c(%esi)
 8049b3b:	c7 46 20 6f 63 6b 65 	movl   $0x656b636f,0x20(%esi)
 8049b42:	66 c7 46 24 74 00    	movw   $0x74,0x24(%esi)
 8049b48:	b8 ff ff ff ff       	mov    $0xffffffff,%eax
 8049b4d:	e9 15 01 00 00       	jmp    8049c67 <init_driver+0x1a5>
 8049b52:	83 ec 0c             	sub    $0xc,%esp
 8049b55:	68 40 a2 04 08       	push   $0x804a240
 8049b5a:	e8 b1 ec ff ff       	call   8048810 <gethostbyname@plt>
 8049b5f:	83 c4 10             	add    $0x10,%esp
 8049b62:	85 c0                	test   %eax,%eax
 8049b64:	75 6c                	jne    8049bd2 <init_driver+0x110>
 8049b66:	c7 06 45 72 72 6f    	movl   $0x6f727245,(%esi)
 8049b6c:	c7 46 04 72 3a 20 44 	movl   $0x44203a72,0x4(%esi)
 8049b73:	c7 46 08 4e 53 20 69 	movl   $0x6920534e,0x8(%esi)
 8049b7a:	c7 46 0c 73 20 75 6e 	movl   $0x6e752073,0xc(%esi)
 8049b81:	c7 46 10 61 62 6c 65 	movl   $0x656c6261,0x10(%esi)
 8049b88:	c7 46 14 20 74 6f 20 	movl   $0x206f7420,0x14(%esi)
 8049b8f:	c7 46 18 72 65 73 6f 	movl   $0x6f736572,0x18(%esi)
 8049b96:	c7 46 1c 6c 76 65 20 	movl   $0x2065766c,0x1c(%esi)
 8049b9d:	c7 46 20 73 65 72 76 	movl   $0x76726573,0x20(%esi)
 8049ba4:	c7 46 24 65 72 20 61 	movl   $0x61207265,0x24(%esi)
 8049bab:	c7 46 28 64 64 72 65 	movl   $0x65726464,0x28(%esi)
 8049bb2:	66 c7 46 2c 73 73    	movw   $0x7373,0x2c(%esi)
 8049bb8:	c6 46 2e 00          	movb   $0x0,0x2e(%esi)
 8049bbc:	83 ec 0c             	sub    $0xc,%esp
 8049bbf:	53                   	push   %ebx
 8049bc0:	e8 7b ec ff ff       	call   8048840 <close@plt>
 8049bc5:	83 c4 10             	add    $0x10,%esp
 8049bc8:	b8 ff ff ff ff       	mov    $0xffffffff,%eax
 8049bcd:	e9 95 00 00 00       	jmp    8049c67 <init_driver+0x1a5>
 8049bd2:	89 e7                	mov    %esp,%edi
 8049bd4:	c7 04 24 00 00 00 00 	movl   $0x0,(%esp)
 8049bdb:	c7 44 24 04 00 00 00 	movl   $0x0,0x4(%esp)
 8049be2:	00 
 8049be3:	c7 44 24 08 00 00 00 	movl   $0x0,0x8(%esp)
 8049bea:	00 
 8049beb:	c7 44 24 0c 00 00 00 	movl   $0x0,0xc(%esp)
 8049bf2:	00 
 8049bf3:	66 c7 04 24 02 00    	movw   $0x2,(%esp)
 8049bf9:	83 ec 04             	sub    $0x4,%esp
 8049bfc:	ff 70 0c             	pushl  0xc(%eax)
 8049bff:	8d 54 24 0c          	lea    0xc(%esp),%edx
 8049c03:	52                   	push   %edx
 8049c04:	8b 40 10             	mov    0x10(%eax),%eax
 8049c07:	ff 30                	pushl  (%eax)
 8049c09:	e8 22 eb ff ff       	call   8048730 <bcopy@plt>
 8049c0e:	66 c7 44 24 12 3b 6e 	movw   $0x6e3b,0x12(%esp)
 8049c15:	83 c4 0c             	add    $0xc,%esp
 8049c18:	6a 10                	push   $0x10
 8049c1a:	57                   	push   %edi
 8049c1b:	53                   	push   %ebx
 8049c1c:	e8 0f ec ff ff       	call   8048830 <connect@plt>
 8049c21:	83 c4 10             	add    $0x10,%esp
 8049c24:	85 c0                	test   %eax,%eax
 8049c26:	79 25                	jns    8049c4d <init_driver+0x18b>
 8049c28:	83 ec 04             	sub    $0x4,%esp
 8049c2b:	68 40 a2 04 08       	push   $0x804a240
 8049c30:	68 00 a2 04 08       	push   $0x804a200
 8049c35:	56                   	push   %esi
 8049c36:	e8 b5 eb ff ff       	call   80487f0 <sprintf@plt>
 8049c3b:	89 1c 24             	mov    %ebx,(%esp)
 8049c3e:	e8 fd eb ff ff       	call   8048840 <close@plt>
 8049c43:	83 c4 10             	add    $0x10,%esp
 8049c46:	b8 ff ff ff ff       	mov    $0xffffffff,%eax
 8049c4b:	eb 1a                	jmp    8049c67 <init_driver+0x1a5>
 8049c4d:	83 ec 0c             	sub    $0xc,%esp
 8049c50:	53                   	push   %ebx
 8049c51:	e8 ea eb ff ff       	call   8048840 <close@plt>
 8049c56:	66 c7 06 4f 4b       	movw   $0x4b4f,(%esi)
 8049c5b:	c6 46 02 00          	movb   $0x0,0x2(%esi)
 8049c5f:	83 c4 10             	add    $0x10,%esp
 8049c62:	b8 00 00 00 00       	mov    $0x0,%eax
 8049c67:	83 c4 10             	add    $0x10,%esp
 8049c6a:	5b                   	pop    %ebx
 8049c6b:	5e                   	pop    %esi
 8049c6c:	5f                   	pop    %edi
 8049c6d:	c3                   	ret    

08049c6e <driver_post>:
 8049c6e:	53                   	push   %ebx
 8049c6f:	83 ec 08             	sub    $0x8,%esp
 8049c72:	8b 44 24 10          	mov    0x10(%esp),%eax
 8049c76:	8b 5c 24 1c          	mov    0x1c(%esp),%ebx
 8049c7a:	83 7c 24 18 00       	cmpl   $0x0,0x18(%esp)
 8049c7f:	74 24                	je     8049ca5 <driver_post+0x37>
 8049c81:	83 ec 08             	sub    $0x8,%esp
 8049c84:	ff 74 24 1c          	pushl  0x1c(%esp)
 8049c88:	68 4a a2 04 08       	push   $0x804a24a
 8049c8d:	e8 2e ea ff ff       	call   80486c0 <printf@plt>
 8049c92:	66 c7 03 4f 4b       	movw   $0x4b4f,(%ebx)
 8049c97:	c6 43 02 00          	movb   $0x0,0x2(%ebx)
 8049c9b:	83 c4 10             	add    $0x10,%esp
 8049c9e:	b8 00 00 00 00       	mov    $0x0,%eax
 8049ca3:	eb 3e                	jmp    8049ce3 <driver_post+0x75>
 8049ca5:	85 c0                	test   %eax,%eax
 8049ca7:	74 2c                	je     8049cd5 <driver_post+0x67>
 8049ca9:	80 38 00             	cmpb   $0x0,(%eax)
 8049cac:	74 27                	je     8049cd5 <driver_post+0x67>
 8049cae:	83 ec 04             	sub    $0x4,%esp
 8049cb1:	53                   	push   %ebx
 8049cb2:	ff 74 24 1c          	pushl  0x1c(%esp)
 8049cb6:	68 61 a2 04 08       	push   $0x804a261
 8049cbb:	50                   	push   %eax
 8049cbc:	68 69 a2 04 08       	push   $0x804a269
 8049cc1:	68 6e 3b 00 00       	push   $0x3b6e
 8049cc6:	68 40 a2 04 08       	push   $0x804a240
 8049ccb:	e8 0d f6 ff ff       	call   80492dd <submitr>
 8049cd0:	83 c4 20             	add    $0x20,%esp
 8049cd3:	eb 0e                	jmp    8049ce3 <driver_post+0x75>
 8049cd5:	66 c7 03 4f 4b       	movw   $0x4b4f,(%ebx)
 8049cda:	c6 43 02 00          	movb   $0x0,0x2(%ebx)
 8049cde:	b8 00 00 00 00       	mov    $0x0,%eax
 8049ce3:	83 c4 08             	add    $0x8,%esp
 8049ce6:	5b                   	pop    %ebx
 8049ce7:	c3                   	ret    
 8049ce8:	66 90                	xchg   %ax,%ax
 8049cea:	66 90                	xchg   %ax,%ax
 8049cec:	66 90                	xchg   %ax,%ax
 8049cee:	66 90                	xchg   %ax,%ax

08049cf0 <__libc_csu_init>:
 8049cf0:	55                   	push   %ebp
 8049cf1:	57                   	push   %edi
 8049cf2:	31 ff                	xor    %edi,%edi
 8049cf4:	56                   	push   %esi
 8049cf5:	53                   	push   %ebx
 8049cf6:	e8 95 eb ff ff       	call   8048890 <__x86.get_pc_thunk.bx>
 8049cfb:	81 c3 fd 13 00 00    	add    $0x13fd,%ebx
 8049d01:	83 ec 1c             	sub    $0x1c,%esp
 8049d04:	8b 6c 24 30          	mov    0x30(%esp),%ebp
 8049d08:	8d b3 0c ff ff ff    	lea    -0xf4(%ebx),%esi
 8049d0e:	e8 69 e9 ff ff       	call   804867c <_init>
 8049d13:	8d 83 08 ff ff ff    	lea    -0xf8(%ebx),%eax
 8049d19:	29 c6                	sub    %eax,%esi
 8049d1b:	c1 fe 02             	sar    $0x2,%esi
 8049d1e:	85 f6                	test   %esi,%esi
 8049d20:	74 27                	je     8049d49 <__libc_csu_init+0x59>
 8049d22:	8d b6 00 00 00 00    	lea    0x0(%esi),%esi
 8049d28:	8b 44 24 38          	mov    0x38(%esp),%eax
 8049d2c:	89 2c 24             	mov    %ebp,(%esp)
 8049d2f:	89 44 24 08          	mov    %eax,0x8(%esp)
 8049d33:	8b 44 24 34          	mov    0x34(%esp),%eax
 8049d37:	89 44 24 04          	mov    %eax,0x4(%esp)
 8049d3b:	ff 94 bb 08 ff ff ff 	call   *-0xf8(%ebx,%edi,4)
 8049d42:	83 c7 01             	add    $0x1,%edi
 8049d45:	39 f7                	cmp    %esi,%edi
 8049d47:	75 df                	jne    8049d28 <__libc_csu_init+0x38>
 8049d49:	83 c4 1c             	add    $0x1c,%esp
 8049d4c:	5b                   	pop    %ebx
 8049d4d:	5e                   	pop    %esi
 8049d4e:	5f                   	pop    %edi
 8049d4f:	5d                   	pop    %ebp
 8049d50:	c3                   	ret    
 8049d51:	eb 0d                	jmp    8049d60 <__libc_csu_fini>
 8049d53:	90                   	nop
 8049d54:	90                   	nop
 8049d55:	90                   	nop
 8049d56:	90                   	nop
 8049d57:	90                   	nop
 8049d58:	90                   	nop
 8049d59:	90                   	nop
 8049d5a:	90                   	nop
 8049d5b:	90                   	nop
 8049d5c:	90                   	nop
 8049d5d:	90                   	nop
 8049d5e:	90                   	nop
 8049d5f:	90                   	nop

08049d60 <__libc_csu_fini>:
 8049d60:	f3 c3                	repz ret 

Disassembly of section .fini:

08049d64 <_fini>:
 8049d64:	53                   	push   %ebx
 8049d65:	83 ec 08             	sub    $0x8,%esp
 8049d68:	e8 23 eb ff ff       	call   8048890 <__x86.get_pc_thunk.bx>
 8049d6d:	81 c3 8b 13 00 00    	add    $0x138b,%ebx
 8049d73:	83 c4 08             	add    $0x8,%esp
 8049d76:	5b                   	pop    %ebx
 8049d77:	c3                   	ret    
